ccopy_reg
_reconstructor
p0
(cproperty_validity_guesser.preprocessor
LocationBlacklist
p1
c__builtin__
object
p2
Ntp3
Rp4
(dp5
S'dictionary_blacklist'
p6
(dp7
(S'107.62358240000003'
p8
S'-6.943062299999999'
p9
tp10
I0
s(S'112.78241700000001'
p11
S'-7.2583306'
p12
tp13
I0
s(S'109.3556729'
p14
S'-0.0073352'
p15
tp16
I0
s(S'106.77253799999994'
p17
S'-6.237979999999999'
p18
tp19
I0
s(S'106.99458260000006'
p20
S'-6.1764942'
p21
tp22
I0
s(S'106.81095559999994'
p23
S'-6.4281972'
p24
tp25
I0
s(S'106.95256110000003'
p26
S'-6.219174199999999'
p27
tp28
I0
s(S'106.99378980000006'
p29
S'-6.139792799999999'
p30
tp31
I0
s(S'106.80532300000004'
p32
S'-6.3478238'
p33
tp34
I0
s(S'106.80603880000001'
p35
S'-6.597146899999999'
p36
tp37
I2
s(S'106.913748'
p38
S'-6.172527'
p39
tp40
I0
s(S'106.8266873'
p41
S'-6.4500987'
p42
tp43
I2
s(S'107.66888700000004'
p44
S'-7.090910999999999'
p45
tp46
I2
s(S'106.8329873788208'
p47
S'-6.341378454967524'
p48
tp49
I0
s(S'106.792543'
p50
S'-6.291967'
p51
tp52
I2
s(S'112.79400699999997'
p53
S'-7.2556427'
p54
tp55
I0
s(S'106.69479968410042'
p56
S'-6.262279789548091'
p57
tp58
I0
s(S'106.80793799999992'
p59
S'-6.6381109'
p60
tp61
I0
s(S'106.73203650000005'
p62
S'-6.354125499999999'
p63
tp64
I0
s(S'107.71403629999998'
p65
S'-6.9175954'
p66
tp67
I0
s(S'106.8752639'
p68
S'-6.1869754'
p69
tp70
I0
s(S'107.68261970000003'
p71
S'-6.927239999999999'
p72
tp73
I0
s(S'112.75447669999994'
p74
S'-7.3203383'
p75
tp76
I0
s(S'106.74533070000007'
p77
S'-6.218219100000001'
p78
tp79
I0
s(S'112.7986343'
p80
S'-7.3949134'
p81
tp82
I2
s(S'106.76757640000005'
p83
S'-6.1720996'
p84
tp85
I0
s(S'106.6775093'
p86
S'-6.294075599999999'
p87
tp88
I0
s(S'112.80268150000006'
p89
S'-7.2630071'
p90
tp91
I0
s(S'106.7018137'
p92
S'-6.350047'
p93
tp94
I2
s(S'112.6824377'
p95
S'-7.9865538'
p96
tp97
I0
s(S'106.62891779999995'
p98
S'-6.2429339'
p99
tp100
I0
s(S'106.682188'
p101
S'-6.3088649'
p102
tp103
I0
s(S'106.84066430000007'
p104
S'-6.4110413'
p105
tp106
I0
s(S'106.68779459629513'
p107
S'-6.315140856894987'
p108
tp109
I0
s(S'112.73784520000004'
p110
S'-7.3368916'
p111
tp112
I0
s(S'107.58750090000001'
p113
S'-6.9406515'
p114
tp115
I2
s(S'107.7073688'
p116
S'-6.9064866'
p117
tp118
I2
s(S'106.8246896'
p119
S'-6.3462843'
p120
tp121
I0
s(S'106.90329050000003'
p122
S'-6.3762857'
p123
tp124
I0
s(S'106.863956'
p125
S'-6.1384145'
p126
tp127
I0
s(S'112.649662'
p128
S'-7.2768355'
p129
tp130
I0
s(S'106.879791999999'
p131
S'-6.35608719999999'
p132
tp133
I2
s(S'106.76044819999993'
p134
S'-6.173820399999999'
p135
tp136
I0
s(S'112.6494715'
p137
S'-7.9602073'
p138
tp139
I0
s(S'107.5697471'
p140
S'-6.8615291'
p141
tp142
I0
s(S'107.01555989999997'
p143
S'-6.218679100000001'
p144
tp145
I0
s(S'107.0362272'
p146
S'-6.123655'
p147
tp148
I0
s(S'106.70926659999998'
p149
S'-6.285854199999999'
p150
tp151
I0
s(S'106.70633499999997'
p152
S'-6.183750799999999'
p153
tp154
I0
s(S'107.0127649'
p155
S'-6.1762337'
p156
tp157
I0
s(S'107.6045159'
p158
S'-6.8904501'
p159
tp160
I0
s(S'106.97557260000008'
p161
S'-6.2382699'
p162
tp163
I2
s(S'106.60796983721'
p164
S'-6.2284375446715'
p165
tp166
I0
s(S'106.6939973'
p167
S'-6.1332275'
p168
tp169
I0
s(S'107.0185123'
p170
S'-6.6103239'
p171
tp172
I2
s(S'106.7491828'
p173
S'-6.3208615'
p174
tp175
I0
s(S'101.4046099'
p176
S'0.4568473'
p177
tp178
I0
s(S'106.78026999999997'
p179
S'-6.283309'
p180
tp181
I0
s(S'112.6354851'
p182
S'-8.0136142'
p183
tp184
I0
s(S'106.892843'
p185
S'-6.1624779'
p186
tp187
I2
s(S'106.79364720000001'
p188
S'-6.105564999999999'
p189
tp190
I0
s(S'107.03527650000001'
p191
S'-6.2184721'
p192
tp193
I0
s(S'106.879792'
p194
S'-6.1976024'
p195
tp196
I0
s(S'112.61220630000003'
p197
S'-7.9323152'
p198
tp199
I0
s(S'112.78979789999994'
p200
S'-7.277734300000001'
p201
tp202
I0
s(S'106.6224954'
p203
S'-6.253853'
p204
tp205
I0
s(S'107.68285179999998'
p206
S'-6.9194906'
p207
tp208
I0
s(S'106.74621490000004'
p209
S'-6.1123989'
p210
tp211
I0
s(S'106.77487050000002'
p212
S'-6.488368299999999'
p213
tp214
I2
s(S'106.84881280000002'
p215
S'-6.2356436'
p216
tp217
I0
s(S'112.7037036'
p218
S'-7.382515'
p219
tp220
I0
s(S'112.65944179999997'
p221
S'-7.279970400000001'
p222
tp223
I0
s(S'106.64459299999999'
p224
S'-6.2824282'
p225
tp226
I0
s(S'106.80579286668694'
p227
S'-6.385054246021306'
p228
tp229
I0
s(S'110.43216710000002'
p230
S'-7.7670239'
p231
tp232
I2
s(S'115.15927179999994'
p233
S'-8.790694499999999'
p234
tp235
I2
s(S'108.5523164'
p236
S'-6.7320229'
p237
tp238
I2
s(S'116.9616941'
p239
S'-1.1662034'
p240
tp241
I2
s(S'112.6511518'
p242
S'-7.4772851'
p243
tp244
I0
s(S'110.3993969'
p245
S'-7.7558021'
p246
tp247
I2
s(S'112.73970400000007'
p248
S'-7.328499300000001'
p249
tp250
I0
s(S'109.3556504'
p251
S'-0.00785'
p252
tp253
I0
s(S'106.95611489999999'
p254
S'-6.305138200000001'
p255
tp256
I2
s(S'112.7375144221985'
p257
S'-7.448747926032708'
p258
tp259
I0
s(S'112.8082197'
p260
S'-7.264560099999999'
p261
tp262
I0
s(S'112.79496300000005'
p263
S'-7.270956399999998'
p264
tp265
I0
s(S'110.42025050000007'
p266
S'-7.0720442'
p267
tp268
I2
s(S'113.72966580000002'
p269
S'-8.1773563'
p270
tp271
I2
s(S'107.6848397'
p272
S'-6.9067396'
p273
tp274
I2
s(S'106.9506175'
p275
S'-6.3179073'
p276
tp277
I2
s(S'106.63216979999993'
p278
S'-6.235730299999999'
p279
tp280
I0
s(S'106.9033981'
p281
S'-6.166211'
p282
tp283
I0
s(S'112.70776380000007'
p284
S'-7.3808642'
p285
tp286
I0
s(S'107.00494090000007'
p287
S'-6.203664499999999'
p288
tp289
I0
s(S'106.6635481'
p290
S'-6.2819487'
p291
tp292
I0
s(S'104.77543070000002'
p293
S'-2.9760735'
p294
tp295
I2
s(S'112.52390000000003'
p296
S'-7.8671'
p297
tp298
I2
s(S'106.68755856190182'
p299
S'-6.315076874495122'
p300
tp301
I0
s(S'106.79808300000002'
p302
S'-6.5538424'
p303
tp304
I0
s(S'106.81457245634'
p305
S'-6.1965549184424'
p306
tp307
I0
s(S'106.7142082'
p308
S'-6.3858924'
p309
tp310
I0
s(S'106.792027'
p311
S'-6.157118'
p312
tp313
I2
s(S'106.77208356881715'
p314
S'-6.553862098203166'
p315
tp316
I0
s(S'112.69476218542786'
p317
S'-7.4614225920606545'
p318
tp319
I0
s(S'106.78377'
p320
S'-6.26586'
p321
tp322
I0
s(S'106.8312514'
p323
S'-6.434802'
p324
tp325
I0
s(S'107.63782470000001'
p326
S'-6.9560824'
p327
tp328
I2
s(S'112.5274893'
p329
S'-7.8986671'
p330
tp331
I2
s(S'106.7997615'
p332
S'-6.3526204'
p333
tp334
I0
s(S'106.9481214'
p335
S'-6.2084546'
p336
tp337
I0
s(S'111.51509060000001'
p338
S'-7.647891899999999'
p339
tp340
I0
s(S'105.25401699413453'
p341
S'-5.4334361950604455'
p342
tp343
I0
s(S'112.807502486261'
p344
S'-7.272353603264633'
p345
tp346
I0
s(S'106.8163628'
p347
S'-6.1983875'
p348
tp349
I0
s(S'106.74348675648343'
p350
S'-6.394066591387674'
p351
tp352
I2
s(S'106.8207875'
p353
S'-6.434914'
p354
tp355
I2
s(S'98.6325611'
p356
S'3.6059085'
p357
tp358
I2
s(S'106.6586052'
p359
S'-6.258454'
p360
tp361
I0
s(S'106.8502879'
p362
S'-6.5211331'
p363
tp364
I0
s(S'106.88772140000003'
p365
S'-6.3815531'
p366
tp367
I0
s(S'106.995542'
p368
S'-6.1766497'
p369
tp370
I0
s(S'107.0273695'
p371
S'-6.2948976'
p372
tp373
I0
s(S'106.84893890000001'
p374
S'-6.5762737'
p375
tp376
I0
s(S'106.78329200000007'
p377
S'-6.221451999999999'
p378
tp379
I0
s(S'106.7740549'
p380
S'-6.601853'
p381
tp382
I0
s(S'106.83258720000003'
p383
S'-6.2195686'
p384
tp385
I2
s(S'110.37452140000005'
p386
S'-7.8691643'
p387
tp388
I0
s(S'106.75612401593025'
p389
S'-6.262261922719612'
p390
tp391
I0
s(S'112.7015495'
p392
S'-7.4497718'
p393
tp394
I2
s(S'107.714401'
p395
S'-6.92205'
p396
tp397
I2
s(S'106.4837451'
p398
S'-6.2618875'
p399
tp400
I0
s(S'109.3158648'
p401
S'-0.0418268'
p402
tp403
I2
s(S'106.770628'
p404
S'-6.155703'
p405
tp406
I2
s(S'107.6730098'
p407
S'-6.9200818'
p408
tp409
I0
s(S'106.75751509999998'
p410
S'-6.219270799999999'
p411
tp412
I0
s(S'106.81050270000003'
p413
S'-6.4294582'
p414
tp415
I0
s(S'109.35567289999995'
p416
S'-0.007335200000000001'
p417
tp418
I0
s(S'106.9565206'
p419
S'-6.2972575'
p420
tp421
I2
s(S'106.77698112747794'
p422
S'-6.4068108128041095'
p423
tp424
I0
s(S'107.01211590000003'
p425
S'-6.1817703'
p426
tp427
I0
s(S'106.9033981'
p428
S'-6.2325788'
p429
tp430
I0
s(S'106.7883416'
p431
S'-6.5514982'
p432
tp433
I2
s(S'106.83116169999994'
p434
S'-6.225833100000001'
p435
tp436
I2
s(S'112.5960247'
p437
S'-8.0072301'
p438
tp439
I0
s(S'106.71805599999993'
p440
S'-6.288888999999999'
p441
tp442
I2
s(S'106.99203020000004'
p443
S'-6.1556327'
p444
tp445
I0
s(S'106.80715088664704'
p446
S'-6.382692636342423'
p447
tp448
I0
s(S'109.295048'
p449
S'-0.1146031'
p450
tp451
I0
s(S'106.818118'
p452
S'-6.2736091'
p453
tp454
I0
s(S'106.77934983684'
p455
S'-6.1083097259541'
p456
tp457
I0
s(S'106.7617984'
p458
S'-6.1707876'
p459
tp460
I2
s(S'107.00117820000003'
p461
S'-6.2283171'
p462
tp463
I0
s(S'106.63192200000003'
p464
S'-6.178278'
p465
tp466
I2
s(S'110.47080030000006'
p467
S'-7.767993799999998'
p468
tp469
I0
s(S'106.858386'
p470
S'-6.226214'
p471
tp472
I0
s(S'110.4276983'
p473
S'-7.0856948'
p474
tp475
I2
s(S'106.9467184'
p476
S'-6.2119495'
p477
tp478
I0
s(S'106.78637925291741'
p479
S'-6.3921006320185985'
p480
tp481
I2
s(S'107.02277819999995'
p482
S'-6.3197148'
p483
tp484
I2
s(S'106.73358830000006'
p485
S'-6.3432131'
p486
tp487
I0
s(S'107.6600073'
p488
S'-6.9185834'
p489
tp490
I0
s(S'115.33144119999997'
p491
S'-8.5367146'
p492
tp493
I2
s(S'106.6674484'
p494
S'-6.2249237'
p495
tp496
I0
s(S'107.11070569999993'
p497
S'-6.3465386'
p498
tp499
I2
s(S'107.612654'
p500
S'-6.8586297'
p501
tp502
I0
s(S'106.850937'
p503
S'-6.157289'
p504
tp505
I0
s(S'106.80786469999998'
p506
S'-6.3834253'
p507
tp508
I0
s(S'106.7860604'
p509
S'-6.6034009'
p510
tp511
I0
s(S'106.79481005822754'
p512
S'-6.336675064663662'
p513
tp514
I0
s(S'106.68813791904904'
p515
S'-6.315418113869698'
p516
tp517
I0
s(S'106.81785816239'
p518
S'-6.2056724000062'
p519
tp520
I0
s(S'106.75359830000002'
p521
S'-6.412177499999999'
p522
tp523
I0
s(S'107.0096714'
p524
S'-6.17277'
p525
tp526
I2
s(S'110.39642040000001'
p527
S'-7.7559007'
p528
tp529
I0
s(S'107.58160709999993'
p530
S'-6.880259799999999'
p531
tp532
I0
s(S'107.1445443'
p533
S'-6.2549342'
p534
tp535
I0
s(S'106.98172790000001'
p536
S'-6.1837021'
p537
tp538
I0
s(S'106.85165478343'
p539
S'-6.1550924071361'
p540
tp541
I0
s(S'106.77313959999992'
p542
S'-6.197484999999999'
p543
tp544
I0
s(S'112.6722635'
p545
S'-7.8848787'
p546
tp547
I0
s(S'107.62168719308'
p548
S'-6.9203770541526'
p549
tp550
I0
s(S'107.6394332'
p551
S'-6.9015937'
p552
tp553
I2
s(S'106.7112933'
p554
S'-6.2835218'
p555
tp556
I2
s(S'106.6202025'
p557
S'-6.180585199999999'
p558
tp559
I2
s(S'106.92897487619621'
p560
S'-6.427786461144902'
p561
tp562
I0
s(S'106.8974964'
p563
S'-6.181712'
p564
tp565
I2
s(S'115.16223630000002'
p566
S'-8.6512212'
p567
tp568
I2
s(S'115.18891600000006'
p569
S'-8.4095178'
p570
tp571
I2
s(S'106.9299579'
p572
S'-6.2393686'
p573
tp574
I0
s(S'106.79137880000007'
p575
S'-6.1768345'
p576
tp577
I0
s(S'110.98669419999999'
p578
S'-7.6070727'
p579
tp580
I2
s(S'110.7822772'
p581
S'-7.5816159'
p582
tp583
I0
s(S'106.77068220000001'
p584
S'-6.4265998'
p585
tp586
I2
s(S'106.7197367'
p587
S'-6.1691844'
p588
tp589
I0
s(S'107.59770379999998'
p590
S'-6.9567926'
p591
tp592
I0
s(S'106.40525409999998'
p593
S'-6.2614858'
p594
tp595
I0
s(S'106.947726'
p596
S'-6.208211'
p597
tp598
I0
s(S'106.82272'
p599
S'-6.187949'
p600
tp601
I0
s(S'107.10340550000001'
p602
S'-6.3933841'
p603
tp604
I0
s(S'107.03362749999997'
p605
S'-6.7070376'
p606
tp607
I2
s(S'112.6243346'
p608
S'-7.387827499999999'
p609
tp610
I2
s(S'107.1107057'
p611
S'-6.3465386'
p612
tp613
I2
s(S'106.76047749999998'
p614
S'-6.3009315'
p615
tp616
I0
s(S'107.04512369999998'
p617
S'-6.2845993'
p618
tp619
I0
s(S'106.68826666508176'
p620
S'-6.315482096227389'
p621
tp622
I0
s(S'106.8721885'
p623
S'-6.1528676'
p624
tp625
I0
s(S'106.6969285'
p626
S'-6.2699989'
p627
tp628
I2
s(S'106.84733770000003'
p629
S'-6.2523005'
p630
tp631
I0
s(S'106.9447146'
p632
S'-6.4153566'
p633
tp634
I2
s(S'106.97908689999997'
p635
S'-6.1919992'
p636
tp637
I0
s(S'106.97838189999993'
p638
S'-6.1812277'
p639
tp640
I2
s(S'106.85368370000003'
p641
S'-6.5683693'
p642
tp643
I0
s(S'106.68826666508176'
p644
S'-6.315290149130589'
p645
tp646
I0
s(S'107.53934240000001'
p647
S'-6.8651709'
p648
tp649
I0
s(S'106.80221732170412'
p650
S'-6.382734897356017'
p651
tp652
I0
s(S'106.7361876'
p653
S'-6.4272479'
p654
tp655
I0
s(S'112.80459280000002'
p656
S'-7.319019099999998'
p657
tp658
I2
s(S'106.8325872'
p659
S'-6.2195686'
p660
tp661
I2
s(S'106.9704941'
p662
S'-6.402271799999999'
p663
tp664
I0
s(S'106.7906669'
p665
S'-6.3330833'
p666
tp667
I2
s(S'106.76841939999997'
p668
S'-6.4728474'
p669
tp670
I2
s(S'115.1904357'
p671
S'-8.7788318'
p672
tp673
I0
s(S'106.72486129999993'
p674
S'-6.1441971'
p675
tp676
I0
s(S'112.79334949999998'
p677
S'-7.272079400000001'
p678
tp679
I0
s(S'107.6749872'
p680
S'-6.9181629'
p681
tp682
I0
s(S'106.6799094'
p683
S'-6.2940767'
p684
tp685
I0
s(S'106.788899'
p686
S'-6.162214'
p687
tp688
I0
s(S'107.4462717'
p689
S'-6.5406665'
p690
tp691
I0
s(S'107.00597199999993'
p692
S'-6.2556191'
p693
tp694
I0
s(S'106.76154810000003'
p695
S'-6.1207809'
p696
tp697
I0
s(S'113.70093120000001'
p698
S'-8.1733118'
p699
tp700
I2
s(S'106.76388541426388'
p701
S'-6.260817623480334'
p702
tp703
I0
s(S'107.0269968'
p704
S'-6.309779300000001'
p705
tp706
I0
s(S'111.53001589999997'
p707
S'-7.6310587'
p708
tp709
I2
s(S'106.93983780000008'
p710
S'-6.679303'
p711
tp712
I0
s(S'106.86946510000007'
p713
S'-6.2732982'
p714
tp715
I2
s(S'106.95061750000002'
p716
S'-6.3179073'
p717
tp718
I2
s(S'112.76884159999997'
p719
S'-7.351143599999999'
p720
tp721
I2
s(S'106.8237891'
p722
S'-6.2659721'
p723
tp724
I0
s(S'115.1385192'
p725
S'-8.6478175'
p726
tp727
I0
s(S'106.7441048'
p728
S'-6.43236099999999'
p729
tp730
I2
s(S'106.76347174436'
p731
S'-6.2021047351478'
p732
tp733
I0
s(S'106.6674484'
p734
S'-6.2914292'
p735
tp736
I0
s(S'106.81164149814754'
p737
S'-6.398298259872458'
p738
tp739
I0
s(S'107.53808849999996'
p740
S'-6.8652102'
p741
tp742
I0
s(S'106.7994446'
p743
S'-6.1687855'
p744
tp745
I0
s(S'107.0407502'
p746
S'-6.4314809'
p747
tp748
I0
s(S'106.986538'
p749
S'-6.151923'
p750
tp751
I0
s(S'110.33963219999998'
p752
S'-7.825674299999999'
p753
tp754
I0
s(S'107.55117470000005'
p755
S'-6.9306057'
p756
tp757
I0
s(S'107.2075388'
p758
S'-6.2148673'
p759
tp760
I2
s(S'110.47573549999993'
p761
S'-7.0521267'
p762
tp763
I0
s(S'106.7595019'
p764
S'-6.464739100000001'
p765
tp766
I2
s(S'106.7848745'
p767
S'-6.3401871'
p768
tp769
I2
s(S'112.6086541'
p770
S'-7.9583741'
p771
tp772
I2
s(S'106.795908'
p773
S'-6.3343312'
p774
tp775
I2
s(S'106.8171925'
p776
S'-6.4041917'
p777
tp778
I0
s(S'106.79675980000002'
p779
S'-6.4358935'
p780
tp781
I0
s(S'106.9054618'
p782
S'-6.1604549'
p783
tp784
I0
s(S'106.8679899'
p785
S'-6.433322599999999'
p786
tp787
I2
s(S'106.89794600000005'
p788
S'-6.3891104'
p789
tp790
I0
s(S'106.88306299049'
p791
S'-6.1572804942601'
p792
tp793
I0
s(S'112.67163706560666'
p794
S'-7.310375596715477'
p795
tp796
I0
s(S'106.85120013337405'
p797
S'-6.695950769853598'
p798
tp799
I0
s(S'110.81473289999997'
p800
S'-7.683029399999999'
p801
tp802
I2
s(S'106.7720491'
p803
S'-6.2737892'
p804
tp805
I0
s(S'106.6748181'
p806
S'-6.1901847'
p807
tp808
I2
s(S'106.68813791904904'
p809
S'-6.315354131504094'
p810
tp811
I0
s(S'106.96506269999998'
p812
S'-6.187244199999999'
p813
tp814
I0
s(S'107.7607951'
p815
S'-6.562288800000001'
p816
tp817
I2
s(S'106.76529210000001'
p818
S'-6.1975609'
p819
tp820
I0
s(S'107.44450849311534'
p821
S'-6.466412563482235'
p822
tp823
I0
s(S'106.7675764'
p824
S'-6.1720996'
p825
tp826
I0
s(S'106.8070346161469'
p827
S'-6.3830891880185385'
p828
tp829
I0
s(S'106.90641019999998'
p830
S'-6.5812833'
p831
tp832
I0
s(S'107.29220959999998'
p833
S'-6.3234143'
p834
tp835
I0
s(S'109.3247866'
p836
S'-0.0572458'
p837
tp838
I2
s(S'106.7862631'
p839
S'-6.1887243'
p840
tp841
I0
s(S'106.79976799999997'
p842
S'-6.537940799999999'
p843
tp844
I0
s(S'107.67788619999999'
p845
S'-6.913456699999999'
p846
tp847
I0
s(S'106.9284822'
p848
S'-6.2228182'
p849
tp850
I2
s(S'106.89051599999993'
p851
S'-6.142672999999999'
p852
tp853
I0
s(S'107.71017391901853'
p854
S'-6.919768144826876'
p855
tp856
I0
s(S'107.6243193'
p857
S'-6.9386241'
p858
tp859
I0
s(S'110.3130087'
p860
S'-7.8450254'
p861
tp862
I2
s(S'106.9978466'
p863
S'-6.1937446'
p864
tp865
I2
s(S'106.7647475'
p866
S'-6.572861899999999'
p867
tp868
I2
s(S'112.5314991'
p869
S'-7.8867589'
p870
tp871
I0
s(S'106.9653756'
p872
S'-6.2382027'
p873
tp874
I2
s(S'106.75090399999999'
p875
S'-6.438002'
p876
tp877
I2
s(S'106.85471329999996'
p878
S'-6.3377275'
p879
tp880
I0
s(S'106.7265809'
p881
S'-6.1856931'
p882
tp883
I0
s(S'106.77084329364016'
p884
S'-6.379905646250663'
p885
tp886
I0
s(S'106.9742309'
p887
S'-6.2711145'
p888
tp889
I0
s(S'106.8060388'
p890
S'-6.59714689999999'
p891
tp892
I2
s(S'106.87979199999995'
p893
S'-6.1976024'
p894
tp895
I0
s(S'106.68769729999997'
p896
S'-6.2636889'
p897
tp898
I0
s(S'106.983284'
p899
S'-6.2103494'
p900
tp901
I0
s(S'107.66102060000003'
p902
S'-6.9003599'
p903
tp904
I0
s(S'106.7701191'
p905
S'-6.4048835'
p906
tp907
I0
s(S'106.84579280000003'
p908
S'-6.6820556'
p909
tp910
I0
s(S'112.63263210000002'
p911
S'-7.9666204'
p912
tp913
I2
s(S'112.78239380000002'
p914
S'-7.254972'
p915
tp916
I0
s(S'110.34718320000002'
p917
S'-7.7538895'
p918
tp919
I0
s(S'107.6465904'
p920
S'-6.9714852'
p921
tp922
I0
s(S'106.7946598545227'
p923
S'-6.336898993670458'
p924
tp925
I0
s(S'112.76937299999997'
p926
S'-7.294468'
p927
tp928
I0
s(S'106.87686959999996'
p929
S'-6.1751906'
p930
tp931
I0
s(S'112.6088609'
p932
S'-8.0023108'
p933
tp934
I2
s(S'106.79081999999994'
p935
S'-6.594293'
p936
tp937
I2
s(S'106.89959969999995'
p938
S'-6.1569518'
p939
tp940
I0
s(S'106.881738'
p941
S'-6.109549'
p942
tp943
I2
s(S'107.0007987'
p944
S'-6.2064052'
p945
tp946
I2
s(S'106.98192330000006'
p947
S'-6.1970883'
p948
tp949
I0
s(S'106.83905759999993'
p950
S'-6.3030626'
p951
tp952
I0
s(S'106.42172440000002'
p953
S'-6.2512789'
p954
tp955
I0
s(S'106.80013959999997'
p956
S'-6.4792109'
p957
tp958
I0
s(S'106.78943389999995'
p959
S'-6.4158151'
p960
tp961
I0
s(S'106.81403575501713'
p962
S'-6.320256450539332'
p963
tp964
I0
s(S'112.76714700000002'
p965
S'-7.266253600000001'
p966
tp967
I0
s(S'112.68970939999997'
p968
S'-7.2511315'
p969
tp970
I0
s(S'106.63286119999998'
p971
S'-6.176936200000001'
p972
tp973
I2
s(S'106.94766600000003'
p974
S'-6.1826294'
p975
tp976
I2
s(S'112.67477925717776'
p977
S'-7.290073851547767'
p978
tp979
I0
s(S'107.657675'
p980
S'-6.9081803'
p981
tp982
I0
s(S'112.6139055'
p983
S'-7.9370268'
p984
tp985
I2
s(S'106.73812840000005'
p986
S'-6.336691699999999'
p987
tp988
I0
s(S'106.6071156'
p989
S'-6.2268175'
p990
tp991
I0
s(S'106.82402654865723'
p992
S'-6.443680783548795'
p993
tp994
I0
s(S'106.75612401593025'
p995
S'-6.262240593084629'
p996
tp997
I0
s(S'106.81382117829594'
p998
S'-6.320085832475323'
p999
tp1000
I0
s(S'106.8060388'
p1001
S'-6.597146899999999'
p1002
tp1003
I2
s(S'107.57862380000006'
p1004
S'-6.876631499999999'
p1005
tp1006
I0
s(S'115.0478775'
p1007
S'-8.4949428'
p1008
tp1009
I0
s(S'107.6022965'
p1010
S'-6.9529665'
p1011
tp1012
I0
s(S'106.7853922'
p1013
S'-6.1598176'
p1014
tp1015
I0
s(S'106.7441048'
p1016
S'-6.1713568'
p1017
tp1018
I0
s(S'106.6876443925903'
p1019
S'-6.31532214031834'
p1020
tp1021
I2
s(S'106.85913870000002'
p1022
S'-6.3644564'
p1023
tp1024
I0
s(S'106.6143944'
p1025
S'-6.267562'
p1026
tp1027
I2
s(S'112.5981363'
p1028
S'-8.0028794'
p1029
tp1030
I2
s(S'106.781836'
p1031
S'-6.1755296'
p1032
tp1033
I0
s(S'106.84060060000002'
p1034
S'-6.3028754'
p1035
tp1036
I0
s(S'107.6777669'
p1037
S'-6.9179069'
p1038
tp1039
I0
s(S'106.81054399999994'
p1040
S'-6.2277765'
p1041
tp1042
I2
s(S'112.7519821'
p1043
S'-7.0252822'
p1044
tp1045
I2
s(S'112.70063909999999'
p1046
S'-7.28569'
p1047
tp1048
I2
s(S'106.7441048'
p1049
S'-6.3503549'
p1050
tp1051
I0
s(S'107.5731516698363'
p1052
S'-6.868362028011747'
p1053
tp1054
I0
s(S'106.9547284'
p1055
S'-6.1917603'
p1056
tp1057
I2
s(S'107.6497351'
p1058
S'-6.9105695'
p1059
tp1060
I0
s(S'107.00418119999995'
p1061
S'-6.1762466'
p1062
tp1063
I0
s(S'106.77950429999999'
p1064
S'-6.1166147'
p1065
tp1066
I0
s(S'106.81867152432858'
p1067
S'-6.363470527766885'
p1068
tp1069
I0
s(S'106.95897289999994'
p1070
S'-6.2925597'
p1071
tp1072
I0
s(S'106.8306951'
p1073
S'-6.4901067'
p1074
tp1075
I2
s(S'106.7608884'
p1076
S'-6.5355972'
p1077
tp1078
I0
s(S'106.82657719206543'
p1079
S'-6.455081822862276'
p1080
tp1081
I0
s(S'110.40859439999997'
p1082
S'-7.7114067'
p1083
tp1084
I0
s(S'106.82373740000003'
p1085
S'-6.6428214'
p1086
tp1087
I2
s(S'106.816353'
p1088
S'-6.270348'
p1089
tp1090
I0
s(S'107.60824209999998'
p1091
S'-6.9148644'
p1092
tp1093
I2
s(S'106.81585710052491'
p1094
S'-6.38232628594564'
p1095
tp1096
I0
s(S'106.98067909999997'
p1097
S'-6.1863372'
p1098
tp1099
I0
s(S'106.80898849999994'
p1100
S'-6.3379655'
p1101
tp1102
I2
s(S'110.39101010000002'
p1103
S'-7.723776900000001'
p1104
tp1105
I0
s(S'107.1425442'
p1106
S'-6.8168237'
p1107
tp1108
I2
s(S'112.5364292'
p1109
S'-7.9567121'
p1110
tp1111
I2
s(S'106.7853922'
p1112
S'-6.1138942'
p1113
tp1114
I0
s(S'106.81046330000004'
p1115
S'-6.2266758'
p1116
tp1117
I2
s(S'106.68813791904904'
p1118
S'-6.315290149130589'
p1119
tp1120
I0
s(S'106.90412709999998'
p1121
S'-6.178222'
p1122
tp1123
I2
s(S'107.055686'
p1124
S'-6.4681773'
p1125
tp1126
I0
s(S'106.80757560000006'
p1127
S'-6.638413799999999'
p1128
tp1129
I0
s(S'112.69312940262444'
p1130
S'-7.349759001576183'
p1131
tp1132
I0
s(S'106.85214289999999'
p1133
S'-6.2572684'
p1134
tp1135
I0
s(S'106.68815937672116'
p1136
S'-6.3154607687757025'
p1137
tp1138
I0
s(S'106.79463839685059'
p1139
S'-6.336675064663662'
p1140
tp1141
I0
s(S'106.81284649999998'
p1142
S'-6.3860592'
p1143
tp1144
I0
s(S'106.92912320000005'
p1145
S'-6.2254776'
p1146
tp1147
I2
s(S'106.7205154'
p1148
S'-6.3511345'
p1149
tp1150
I2
s(S'107.00079870000002'
p1151
S'-6.277897299999999'
p1152
tp1153
I2
s(S'106.70577330000003'
p1154
S'-6.236466699999999'
p1155
tp1156
I2
s(S'106.71969899999999'
p1157
S'-6.308158'
p1158
tp1159
I0
s(S'107.7192104'
p1160
S'-6.9163257'
p1161
tp1162
I2
s(S'112.63702'
p1163
S'-7.977521'
p1164
tp1165
I2
s(S'106.7098122'
p1166
S'-6.1229626'
p1167
tp1168
I0
s(S'106.95701080000003'
p1169
S'-6.3144578'
p1170
tp1171
I0
s(S'106.7883416'
p1172
S'-6.3360895'
p1173
tp1174
I0
s(S'106.67386490000001'
p1175
S'-6.2474531'
p1176
tp1177
I0
s(S'106.81599800000004'
p1178
S'-6.3312439'
p1179
tp1180
I0
s(S'106.7898163'
p1181
S'-6.17882'
p1182
tp1183
I0
s(S'106.9298656'
p1184
S'-6.3826479'
p1185
tp1186
I0
s(S'107.71051724177244'
p1187
S'-6.9187030750825915'
p1188
tp1189
I0
s(S'107.13170190000005'
p1190
S'-6.3530969'
p1191
tp1192
I0
s(S'107.05568599999992'
p1193
S'-6.4681773'
p1194
tp1195
I2
s(S'112.8135304'
p1196
S'-7.305958'
p1197
tp1198
I0
s(S'107.31264570000008'
p1199
S'-6.332909000000001'
p1200
tp1201
I2
s(S'106.67924'
p1202
S'-6.3064015'
p1203
tp1204
I0
s(S'106.66709300000002'
p1205
S'-6.3244269'
p1206
tp1207
I2
s(S'106.6114474'
p1208
S'-6.2395155'
p1209
tp1210
I2
s(S'106.83329000000003'
p1211
S'-6.22591'
p1212
tp1213
I0
s(S'106.98137399999996'
p1214
S'-6.179025999999999'
p1215
tp1216
I0
s(S'110.43321459999993'
p1217
S'-7.7591912'
p1218
tp1219
I0
s(S'115.17423929999995'
p1220
S'-8.813464699999999'
p1221
tp1222
I0
s(S'112.1609056'
p1223
S'-8.0954627'
p1224
tp1225
I2
s(S'107.53019219999999'
p1226
S'-6.849320899999999'
p1227
tp1228
I2
s(S'112.5336799'
p1229
S'-7.8953943'
p1230
tp1231
I0
s(S'115.12645220000002'
p1232
S'-8.8315362'
p1233
tp1234
I0
s(S'107.5564326'
p1235
S'-6.8633153'
p1236
tp1237
I2
s(S'106.87046329999998'
p1238
S'-6.3125516'
p1239
tp1240
I0
s(S'110.30812130000004'
p1241
S'-7.773728699999999'
p1242
tp1243
I0
s(S'106.95817050000005'
p1244
S'-6.4525105'
p1245
tp1246
I0
s(S'107.0421324'
p1247
S'-6.3634304'
p1248
tp1249
I0
s(S'112.6317244'
p1250
S'-7.9818838'
p1251
tp1252
I0
s(S'106.74000649999994'
p1253
S'-6.263709299999999'
p1254
tp1255
I0
s(S'106.71274704343875'
p1256
S'-6.222413711880623'
p1257
tp1258
I2
s(S'106.61321889999999'
p1259
S'-6.2653887'
p1260
tp1261
I0
s(S'101.43006779999996'
p1262
S'0.5686632'
p1263
tp1264
I0
s(S'112.7015495'
p1265
S'-7.449771799999999'
p1266
tp1267
I2
s(S'107.0407166'
p1268
S'-6.4314456'
p1269
tp1270
I0
s(S'106.7818898'
p1271
S'-6.1837096'
p1272
tp1273
I2
s(S'106.73282100000006'
p1274
S'-6.129303999999999'
p1275
tp1276
I0
s(S'106.8137782629517'
p1277
S'-6.320256450539332'
p1278
tp1279
I0
s(S'106.80235590000007'
p1280
S'-6.448892'
p1281
tp1282
I0
s(S'107.6644471'
p1283
S'-6.8965422'
p1284
tp1285
I0
s(S'106.95472840000002'
p1286
S'-6.191760299999999'
p1287
tp1288
I2
s(S'106.6674484'
p1289
S'-6.3221489'
p1290
tp1291
I2
s(S'106.92405540000004'
p1292
S'-6.4288646'
p1293
tp1294
I2
s(S'106.65541719999999'
p1295
S'-6.2428386'
p1296
tp1297
I0
s(S'106.52318600000001'
p1298
S'-6.2356506'
p1299
tp1300
I0
s(S'106.75703494100344'
p1301
S'-6.3966886030295464'
p1302
tp1303
I0
s(S'106.8448755'
p1304
S'-6.2553486'
p1305
tp1306
I0
s(S'106.07408859999998'
p1307
S'-6.0282817'
p1308
tp1309
I2
s(S'106.74115589999997'
p1310
S'-6.3991308'
p1311
tp1312
I2
s(S'107.0332746'
p1313
S'-6.1925818'
p1314
tp1315
I2
s(S'106.8001396'
p1316
S'-6.2845276'
p1317
tp1318
I2
s(S'106.63433069999996'
p1319
S'-6.2285346'
p1320
tp1321
I0
s(S'110.41666699999996'
p1322
S'-6.966667'
p1323
tp1324
I2
s(S'106.7778806'
p1325
S'-6.1732613'
p1326
tp1327
I0
s(S'110.4243712'
p1328
S'-7.6260919'
p1329
tp1330
I0
s(S'106.53336489999992'
p1331
S'-6.1819258'
p1332
tp1333
I2
s(S'112.6058672'
p1334
S'-7.9896046'
p1335
tp1336
I0
s(S'106.8945456'
p1337
S'-6.712398'
p1338
tp1339
I0
s(S'107.5948986'
p1340
S'-6.9519605'
p1341
tp1342
I2
s(S'106.9087637'
p1343
S'-6.1543592'
p1344
tp1345
I0
s(S'106.7130533'
p1346
S'-6.26174'
p1347
tp1348
I0
s(S'106.7565242'
p1349
S'-6.308507'
p1350
tp1351
I2
s(S'107.76153986455688'
p1352
S'-6.573373432809171'
p1353
tp1354
I0
s(S'107.0273695'
p1355
S'-6.3204554'
p1356
tp1357
I2
s(S'112.6028753'
p1358
S'-7.9883229'
p1359
tp1360
I2
s(S'106.8237374'
p1361
S'-6.3758806'
p1362
tp1363
I0
s(S'107.14269119999994'
p1364
S'-6.2649544'
p1365
tp1366
I0
s(S'115.1325897'
p1367
S'-8.638112'
p1368
tp1369
I0
s(S'106.95903640000006'
p1370
S'-6.2924679'
p1371
tp1372
I0
s(S'106.7861312'
p1373
S'-6.6019253'
p1374
tp1375
I0
s(S'107.64902519999998'
p1376
S'-6.9430969'
p1377
tp1378
I2
s(S'107.66000729999996'
p1379
S'-6.918583399999999'
p1380
tp1381
I0
s(S'106.82194700000002'
p1382
S'-6.3994526'
p1383
tp1384
I2
s(S'112.7688416'
p1385
S'-7.2202663'
p1386
tp1387
I0
s(S'106.8827427'
p1388
S'-6.2307016'
p1389
tp1390
I2
s(S'107.6614872'
p1391
S'-6.9352581'
p1392
tp1393
I2
s(S'106.92781530000002'
p1394
S'-6.3822383'
p1395
tp1396
I0
s(S'106.8457928'
p1397
S'-6.6820556'
p1398
tp1399
I0
s(S'106.71200069999998'
p1400
S'-6.1777235'
p1401
tp1402
I0
s(S'107.00268670000003'
p1403
S'-6.2774752'
p1404
tp1405
I2
s(S'112.6930724'
p1406
S'-7.302334300000001'
p1407
tp1408
I0
s(S'109.355672899999'
p1409
S'-0.0073352'
p1410
tp1411
I0
s(S'115.2441851'
p1412
S'-8.4401134'
p1413
tp1414
I0
s(S'106.99547440000003'
p1415
S'-6.176629399999999'
p1416
tp1417
I0
s(S'106.74874369999998'
p1418
S'-6.2476693'
p1419
tp1420
I0
s(S'106.6320777'
p1421
S'-6.2107244'
p1422
tp1423
I2
s(S'106.74687629999994'
p1424
S'-6.1861447'
p1425
tp1426
I0
s(S'106.98101509999992'
p1427
S'-6.1863603'
p1428
tp1429
I0
s(S'106.8350044'
p1430
S'-6.3306725'
p1431
tp1432
I0
s(S'106.96540860000005'
p1433
S'-6.6985209'
p1434
tp1435
I0
s(S'106.80611296190182'
p1436
S'-6.336673070231851'
p1437
tp1438
I0
s(S'106.84733770000003'
p1439
S'-6.231859699999999'
p1440
tp1441
I0
s(S'106.9476957'
p1442
S'-6.2085845'
p1443
tp1444
I0
s(S'106.68226974393315'
p1445
S'-6.297702503714622'
p1446
tp1447
I0
s(S'106.71954389999996'
p1448
S'-6.2861682'
p1449
tp1450
I0
s(S'107.0671807'
p1451
S'-6.2985405'
p1452
tp1453
I0
s(S'112.76682440000002'
p1454
S'-7.294292500000001'
p1455
tp1456
I0
s(S'106.7538211'
p1457
S'-6.1283484'
p1458
tp1459
I0
s(S'106.72807790000002'
p1460
S'-6.3021636'
p1461
tp1462
I0
s(S'106.89348510000002'
p1463
S'-6.391684499999999'
p1464
tp1465
I2
s(S'106.77277930000002'
p1466
S'-6.1693723'
p1467
tp1468
I0
s(S'106.89749640000002'
p1469
S'-6.181712'
p1470
tp1471
I0
s(S'106.78669450000007'
p1472
S'-6.3869092'
p1473
tp1474
I0
s(S'106.7112823'
p1475
S'-6.1792662'
p1476
tp1477
I0
s(S'106.79886847088619'
p1478
S'-6.525378726226757'
p1479
tp1480
I0
s(S'106.8134121'
p1481
S'-6.2622411'
p1482
tp1483
I2
s(S'107.67776690000005'
p1484
S'-6.917906899999999'
p1485
tp1486
I0
s(S'106.80041779999999'
p1487
S'-6.385424899999999'
p1488
tp1489
I0
s(S'112.7032945'
p1490
S'-7.9675395'
p1491
tp1492
I2
s(S'106.9474628'
p1493
S'-6.2087191'
p1494
tp1495
I0
s(S'106.8281623'
p1496
S'-6.5873882'
p1497
tp1498
I0
s(S'106.9447146'
p1499
S'-6.3385652'
p1500
tp1501
I2
s(S'106.8237374'
p1502
S'-6.334917'
p1503
tp1504
I2
s(S'112.64734520000002'
p1505
S'-7.288272300000001'
p1506
tp1507
I2
s(S'107.06761989999995'
p1508
S'-6.2972565'
p1509
tp1510
I0
s(S'112.77926920000004'
p1511
S'-7.301480799999999'
p1512
tp1513
I0
s(S'106.8085486'
p1514
S'-6.274197399999999'
p1515
tp1516
I0
s(S'106.75616693127449'
p1517
S'-6.262144609716413'
p1518
tp1519
I0
s(S'106.92560750000007'
p1520
S'-6.284051799999999'
p1521
tp1522
I0
s(S'107.73021010000002'
p1523
S'-6.932090499999999'
p1524
tp1525
I0
s(S'106.6910322'
p1526
S'-6.3060156'
p1527
tp1528
I2
s(S'106.71307550000006'
p1529
S'-6.2884657'
p1530
tp1531
I0
s(S'106.80727909999996'
p1532
S'-6.438567'
p1533
tp1534
I0
s(S'106.78993443045'
p1535
S'-6.1786304773636'
p1536
tp1537
I0
s(S'106.80859843593748'
p1538
S'-6.332177712107245'
p1539
tp1540
I0
s(S'110.45741509999993'
p1541
S'-7.006615'
p1542
tp1543
I0
s(S'110.32492379999997'
p1544
S'-7.834128600000001'
p1545
tp1546
I2
s(S'106.70164260000001'
p1547
S'-6.285743099999999'
p1548
tp1549
I2
s(S'115.279503'
p1550
S'-8.444143'
p1551
tp1552
I0
s(S'106.7795488'
p1553
S'-6.1105016'
p1554
tp1555
I0
s(S'112.77515041481934'
p1556
S'-7.305430561322533'
p1557
tp1558
I0
s(S'106.80291290000002'
p1559
S'-6.590866900000001'
p1560
tp1561
I0
s(S'112.649662'
p1562
S'-7.9553448'
p1563
tp1564
I2
s(S'106.71795680000002'
p1565
S'-6.335103699999999'
p1566
tp1567
I0
s(S'106.90044720000003'
p1568
S'-6.2250138'
p1569
tp1570
I2
s(S'106.84628129999999'
p1571
S'-6.4049941'
p1572
tp1573
I0
s(S'107.01276489999998'
p1574
S'-6.1762337'
p1575
tp1576
I0
s(S'106.8137782629517'
p1577
S'-6.3201284869965955'
p1578
tp1579
I0
s(S'112.69510909999997'
p1580
S'-7.299599299999999'
p1581
tp1582
I0
s(S'106.6844327'
p1583
S'-6.2947602'
p1584
tp1585
I0
s(S'107.5889804'
p1586
S'-6.8903936'
p1587
tp1588
I2
s(S'106.73104799999999'
p1589
S'-6.584259299999999'
p1590
tp1591
I0
s(S'107.64904230000002'
p1592
S'-6.943076400000001'
p1593
tp1594
I0
s(S'106.6556575'
p1595
S'-6.2355315'
p1596
tp1597
I0
s(S'106.75493329999995'
p1598
S'-6.367426699999999'
p1599
tp1600
I2
s(S'112.64454660000001'
p1601
S'-7.9996855'
p1602
tp1603
I0
s(S'106.70304429999999'
p1604
S'-6.190335399999999'
p1605
tp1606
I0
s(S'110.40625130000001'
p1607
S'-7.7696022'
p1608
tp1609
I0
s(S'107.6583538'
p1610
S'-6.9394579'
p1611
tp1612
I0
s(S'106.8406006'
p1613
S'-6.3028754'
p1614
tp1615
I0
s(S'115.2611'
p1616
S'-8.508748'
p1617
tp1618
I0
s(S'107.47055060000002'
p1619
S'-6.851023'
p1620
tp1621
I0
s(S'106.7870414'
p1622
S'-6.4943004'
p1623
tp1624
I0
s(S'107.72020240000006'
p1625
S'-6.929193199999999'
p1626
tp1627
I0
s(S'112.67987859999994'
p1628
S'-7.3105288'
p1629
tp1630
I0
s(S'106.82819897192'
p1631
S'-6.2241983683526'
p1632
tp1633
I0
s(S'106.6323517533'
p1634
S'-6.1439664207476'
p1635
tp1636
I0
s(S'110.3964179'
p1637
S'-7.7173988'
p1638
tp1639
I2
s(S'106.7175669'
p1640
S'-6.3077057'
p1641
tp1642
I2
s(S'112.7520883'
p1643
S'-7.2574719'
p1644
tp1645
I2
s(S'107.69415040000001'
p1646
S'-6.8974978'
p1647
tp1648
I0
s(S'107.0509906'
p1649
S'-6.4476'
p1650
tp1651
I2
s(S'106.8001396'
p1652
S'-6.2436219'
p1653
tp1654
I2
s(S'112.68031900000005'
p1655
S'-7.311038'
p1656
tp1657
I0
s(S'106.9535691'
p1658
S'-6.3101381'
p1659
tp1660
I0
s(S'106.99251119999997'
p1661
S'-6.2244149'
p1662
tp1663
I0
s(S'106.6961'
p1664
S'-6.1582345'
p1665
tp1666
I0
s(S'106.80013959999997'
p1667
S'-6.3971623'
p1668
tp1669
I2
s(S'106.7794935'
p1670
S'-6.3389422'
p1671
tp1672
I0
s(S'107.0131324'
p1673
S'-6.4141083'
p1674
tp1675
I2
s(S'112.6123684'
p1676
S'-8.0038331'
p1677
tp1678
I0
s(S'106.7115398'
p1679
S'-6.1809352'
p1680
tp1681
I0
s(S'106.7748596'
p1682
S'-6.1691846'
p1683
tp1684
I2
s(S'106.9466389'
p1685
S'-6.2104868'
p1686
tp1687
I0
s(S'106.71025800000007'
p1688
S'-6.1242636'
p1689
tp1690
I0
s(S'112.79109930000004'
p1691
S'-7.267384000000001'
p1692
tp1693
I0
s(S'106.82875845624'
p1694
S'-6.2146567505518'
p1695
tp1696
I0
s(S'106.6226719'
p1697
S'-6.2202677'
p1698
tp1699
I2
s(S'106.8137782629517'
p1700
S'-6.320299105046534'
p1701
tp1702
I0
s(S'106.787835'
p1703
S'-6.1538367'
p1704
tp1705
I0
s(S'106.8409708'
p1706
S'-6.2943651'
p1707
tp1708
I0
s(S'106.8237374'
p1709
S'-6.6428214'
p1710
tp1711
I2
s(S'106.986899'
p1712
S'-6.154968999999999'
p1713
tp1714
I0
s(S'106.75614999999993'
p1715
S'-6.189336'
p1716
tp1717
I0
s(S'112.64464559999999'
p1718
S'-8.0017008'
p1719
tp1720
I0
s(S'106.81851099999994'
p1721
S'-6.4791212'
p1722
tp1723
I0
s(S'106.76769669999999'
p1724
S'-6.4213147'
p1725
tp1726
I2
s(S'106.92700660000003'
p1727
S'-6.3033511'
p1728
tp1729
I2
s(S'106.7942405'
p1730
S'-6.4024844'
p1731
tp1732
I2
s(S'107.03527830000007'
p1733
S'-6.218465999999999'
p1734
tp1735
I0
s(S'106.711293299999'
p1736
S'-6.2835218'
p1737
tp1738
I2
s(S'112.6183751'
p1739
S'-7.9940531'
p1740
tp1741
I2
s(S'119.5776065'
p1742
S'-4.9519888'
p1743
tp1744
I0
s(S'106.78368219999993'
p1745
S'-6.180045499999999'
p1746
tp1747
I0
s(S'106.82419754488'
p1748
S'-6.2273430510813'
p1749
tp1750
I0
s(S'106.7794935'
p1751
S'-6.3031123'
p1752
tp1753
I0
s(S'107.5717275'
p1754
S'-6.966293'
p1755
tp1756
I0
s(S'106.7007052'
p1757
S'-6.1453357'
p1758
tp1759
I0
s(S'109.3484393'
p1760
S'-0.0777611'
p1761
tp1762
I0
s(S'106.85290187199712'
p1763
S'-6.147605834931539'
p1764
tp1765
I0
s(S'106.8473377'
p1766
S'-6.3853366'
p1767
tp1768
I2
s(S'113.7221912'
p1769
S'-8.1839546'
p1770
tp1771
I0
s(S'106.82373740000003'
p1772
S'-6.375880599999999'
p1773
tp1774
I2
s(S'115.24208240000007'
p1775
S'-8.689525999999999'
p1776
tp1777
I0
s(S'106.6801299'
p1778
S'-6.3067434'
p1779
tp1780
I0
s(S'109.3069432'
p1781
S'-0.2295518'
p1782
tp1783
I2
s(S'107.7419708'
p1784
S'-6.9316588'
p1785
tp1786
I2
s(S'106.73206779999998'
p1787
S'-6.3433854'
p1788
tp1789
I0
s(S'106.81811800000003'
p1790
S'-6.273609100000001'
p1791
tp1792
I0
s(S'106.83100519999994'
p1793
S'-6.37929'
p1794
tp1795
I0
s(S'106.83633412087102'
p1796
S'-6.30226307241957'
p1797
tp1798
I0
s(S'106.73935119999999'
p1799
S'-6.1091295'
p1800
tp1801
I0
s(S'106.713278'
p1802
S'-6.1797507'
p1803
tp1804
I0
s(S'112.6615805'
p1805
S'-7.3165142'
p1806
tp1807
I2
s(S'112.65677840000001'
p1808
S'-7.926591899999999'
p1809
tp1810
I0
s(S'106.81824129999995'
p1811
S'-6.260923699999999'
p1812
tp1813
I0
s(S'106.9004472'
p1814
S'-6.5938837'
p1815
tp1816
I2
s(S'109.35374239999999'
p1817
S'-0.0604435'
p1818
tp1819
I0
s(S'112.60049649999996'
p1820
S'-7.933973099999999'
p1821
tp1822
I2
s(S'110.36948959999995'
p1823
S'-7.7955798'
p1824
tp1825
I2
s(S'106.65209779999998'
p1826
S'-6.3008649'
p1827
tp1828
I0
s(S'112.78163006843'
p1829
S'-7.3115262708982'
p1830
tp1831
I0
s(S'106.79159860000004'
p1832
S'-6.2351288'
p1833
tp1834
I0
s(S'106.85504059999994'
p1835
S'-6.568395799999999'
p1836
tp1837
I0
s(S'112.6274267'
p1838
S'-7.251732400000001'
p1839
tp1840
I0
s(S'106.90327530000002'
p1841
S'-6.3762745'
p1842
tp1843
I0
s(S'106.8266873'
p1844
S'-6.4757462'
p1845
tp1846
I2
s(S'107.61912280000001'
p1847
S'-6.9174639'
p1848
tp1849
I2
s(S'106.69202659999996'
p1850
S'-6.3469973'
p1851
tp1852
I0
s(S'106.79479647724611'
p1853
S'-6.3853857919800925'
p1854
tp1855
I2
s(S'110.39362600000004'
p1856
S'-7.736443'
p1857
tp1858
I0
s(S'112.77413660000002'
p1859
S'-7.337700000000001'
p1860
tp1861
I0
s(S'107.0185123'
p1862
S'-6.3028597'
p1863
tp1864
I2
s(S'106.7720511'
p1865
S'-6.2380457'
p1866
tp1867
I0
s(S'106.77485960000001'
p1868
S'-6.169184599999999'
p1869
tp1870
I2
s(S'115.1482949'
p1871
S'-8.6539349'
p1872
tp1873
I0
s(S'106.79406470000004'
p1874
S'-6.2367114'
p1875
tp1876
I0
s(S'106.81833230000007'
p1877
S'-6.4398572'
p1878
tp1879
I0
s(S'115.1471868'
p1880
S'-8.6494044'
p1881
tp1882
I0
s(S'106.7203384'
p1883
S'-6.1568568'
p1884
tp1885
I0
s(S'107.00418119999995'
p1886
S'-6.1762492'
p1887
tp1888
I0
s(S'112.8060824'
p1889
S'-7.2799289'
p1890
tp1891
I0
s(S'106.55921790000002'
p1892
S'-6.165818199999999'
p1893
tp1894
I0
s(S'106.9801346'
p1895
S'-6.1535154'
p1896
tp1897
I2
s(S'108.550006'
p1898
S'-6.712058'
p1899
tp1900
I0
s(S'106.76440849999994'
p1901
S'-6.1977357'
p1902
tp1903
I0
s(S'111.4752851'
p1904
S'-0.2787808'
p1905
tp1906
I0
s(S'106.77503580000007'
p1907
S'-6.2892065'
p1908
tp1909
I0
s(S'115.1766736'
p1910
S'-8.3050448'
p1911
tp1912
I0
s(S'106.55338729999994'
p1913
S'-6.3681068'
p1914
tp1915
I2
s(S'112.67352549999998'
p1916
S'-8.043572'
p1917
tp1918
I0
s(S'106.6556575'
p1919
S'-6.2611077'
p1920
tp1921
I0
s(S'106.9508941'
p1922
S'-6.2110333'
p1923
tp1924
I0
s(S'112.8165095'
p1925
S'-7.2881839'
p1926
tp1927
I2
s(S'106.89063063223'
p1928
S'-6.1490454330597'
p1929
tp1930
I0
s(S'112.80677170000001'
p1931
S'-7.356991099999999'
p1932
tp1933
I0
s(S'106.91591605955'
p1934
S'-6.1480832159481'
p1935
tp1936
I0
s(S'106.9637712'
p1937
S'-6.232554599999999'
p1938
tp1939
I0
s(S'106.99242679999998'
p1940
S'-6.2468837'
p1941
tp1942
I0
s(S'106.8126489'
p1943
S'-6.341755999999999'
p1944
tp1945
I0
s(S'106.5333649'
p1946
S'-6.1819258'
p1947
tp1948
I0
s(S'106.88104020000003'
p1949
S'-6.2262784'
p1950
tp1951
I0
s(S'106.70545179999999'
p1952
S'-6.1266839'
p1953
tp1954
I0
s(S'106.61144739999997'
p1955
S'-6.2395155'
p1956
tp1957
I2
s(S'107.71691162806394'
p1958
S'-6.915081819983819'
p1959
tp1960
I0
s(S'106.79276579999998'
p1961
S'-6.1608563'
p1962
tp1963
I2
s(S'106.8387201'
p1964
S'-6.4482029'
p1965
tp1966
I0
s(S'96.15269850000001'
p1967
S'4.454274499999999'
p1968
tp1969
I2
s(S'106.80667440000002'
p1970
S'-6.2019174'
p1971
tp1972
I0
s(S'106.97811530000001'
p1973
S'-6.449407400000001'
p1974
tp1975
I0
s(S'107.62659669999994'
p1976
S'-6.886532'
p1977
tp1978
I0
s(S'106.6974266354431'
p1979
S'-6.2641458527470855'
p1980
tp1981
I0
s(S'106.52343169999995'
p1982
S'-6.244714399999999'
p1983
tp1984
I2
s(S'112.74229047843482'
p1985
S'-7.332314806790751'
p1986
tp1987
I0
s(S'109.4735066'
p1988
S'-0.3533938'
p1989
tp1990
I0
s(S'107.65923888557'
p1991
S'-6.9379602398578'
p1992
tp1993
I0
s(S'107.00945260000003'
p1994
S'-6.2053492'
p1995
tp1996
I0
s(S'98.67894590000003'
p1997
S'3.6210244'
p1998
tp1999
I2
s(S'106.97925150000003'
p2000
S'-6.4455778'
p2001
tp2002
I0
s(S'106.68826666508176'
p2003
S'-6.315247494210526'
p2004
tp2005
I0
s(S'106.802186'
p2006
S'-6.347591'
p2007
tp2008
I0
s(S'110.3255365'
p2009
S'-7.8748176'
p2010
tp2011
I2
s(S'106.8067779418335'
p2012
S'-6.3635533570856975'
p2013
tp2014
I0
s(S'106.74767029999998'
p2015
S'-6.113811099999999'
p2016
tp2017
I2
s(S'112.6445466'
p2018
S'-7.9996855'
p2019
tp2020
I2
s(S'106.76478020000002'
p2021
S'-6.6020306'
p2022
tp2023
I0
s(S'106.9398378'
p2024
S'-6.679303'
p2025
tp2026
I0
s(S'106.8030892'
p2027
S'-6.374008'
p2028
tp2029
I0
s(S'106.77309220000006'
p2030
S'-6.4804743'
p2031
tp2032
I2
s(S'107.48226840000007'
p2033
S'-6.860420899999999'
p2034
tp2035
I0
s(S'106.01112030000002'
p2036
S'-6.0025343'
p2037
tp2038
I2
s(S'115.23797820000004'
p2039
S'-8.687587299999999'
p2040
tp2041
I0
s(S'115.3314412'
p2042
S'-8.5367146'
p2043
tp2044
I2
s(S'106.826055'
p2045
S'-6.1485374'
p2046
tp2047
I0
s(S'110.39613110000005'
p2048
S'-7.7584531'
p2049
tp2050
I0
s(S'107.4705506'
p2051
S'-6.851023'
p2052
tp2053
I0
s(S'106.94183850000002'
p2054
S'-6.1642021'
p2055
tp2056
I0
s(S'106.84585557774'
p2057
S'-6.1221020325847'
p2058
tp2059
I0
s(S'106.7856491'
p2060
S'-6.6043315'
p2061
tp2062
I0
s(S'110.40625720000003'
p2063
S'-7.769541999999999'
p2064
tp2065
I0
s(S'106.97641249999992'
p2066
S'-6.267765199999999'
p2067
tp2068
I2
s(S'106.77908397934561'
p2069
S'-6.409156410198941'
p2070
tp2071
I0
s(S'106.89238335634468'
p2072
S'-6.198326953805823'
p2073
tp2074
I0
s(S'106.68768730793454'
p2075
S'-6.315183511823841'
p2076
tp2077
I0
s(S'110.46195910000006'
p2078
S'-7.0447231'
p2079
tp2080
I2
s(S'106.65270989999999'
p2081
S'-6.2023936'
p2082
tp2083
I2
s(S'106.8060388'
p2084
S'-6.5971469'
p2085
tp2086
I2
s(S'107.66473399999995'
p2087
S'-6.960647199999999'
p2088
tp2089
I0
s(S'106.80532828836067'
p2090
S'-6.368833643953257'
p2091
tp2092
I0
s(S'106.79353000000003'
p2093
S'-6.24975'
p2094
tp2095
I0
s(S'112.58410750000007'
p2096
S'-7.285306999999999'
p2097
tp2098
I0
s(S'107.5630857'
p2099
S'-6.9434115'
p2100
tp2101
I0
s(S'115.17705860000001'
p2102
S'-8.5819296'
p2103
tp2104
I2
s(S'106.8325872'
p2105
S'-6.2553397'
p2106
tp2107
I0
s(S'106.8207875'
p2108
S'-6.2608384'
p2109
tp2110
I0
s(S'106.69553216202394'
p2111
S'-6.438332706497071'
p2112
tp2113
I2
s(S'106.8207875'
p2114
S'-6.2506144'
p2115
tp2116
I2
s(S'112.67051939999999'
p2117
S'-7.278259599999999'
p2118
tp2119
I2
s(S'107.5801033'
p2120
S'-6.9757129'
p2121
tp2122
I2
s(S'106.70872159999999'
p2123
S'-6.4079013'
p2124
tp2125
I2
s(S'109.38341439999999'
p2126
S'-0.1722292'
p2127
tp2128
I0
s(S'106.9004472'
p2129
S'-6.3272512'
p2130
tp2131
I0
s(S'106.83241089268'
p2132
S'-6.2141083211162'
p2133
tp2134
I0
s(S'106.830414'
p2135
S'-6.127533'
p2136
tp2137
I0
s(S'106.9831194'
p2138
S'-6.2335156'
p2139
tp2140
I2
s(S'98.70407499999999'
p2141
S'3.4201802'
p2142
tp2143
I2
s(S'106.92995789999998'
p2144
S'-6.2802468'
p2145
tp2146
I0
s(S'106.946847'
p2147
S'-6.212015'
p2148
tp2149
I0
s(S'106.68818083439328'
p2150
S'-6.315290149130589'
p2151
tp2152
I0
s(S'115.188916'
p2153
S'-8.4095178'
p2154
tp2155
I2
s(S'111.5300159'
p2156
S'-7.6310587'
p2157
tp2158
I2
s(S'106.952561'
p2159
S'-6.219174'
p2160
tp2161
I2
s(S'106.8756351'
p2162
S'-6.3747299'
p2163
tp2164
I0
s(S'107.70987351160886'
p2165
S'-6.9192143088596945'
p2166
tp2167
I0
s(S'110.34715400000005'
p2168
S'-7.753866'
p2169
tp2170
I0
s(S'104.03045350000002'
p2171
S'1.0456264'
p2172
tp2173
I2
s(S'106.87563509999995'
p2174
S'-6.374729899999999'
p2175
tp2176
I2
s(S'107.6193581'
p2177
S'-6.8850617'
p2178
tp2179
I0
s(S'106.7617984'
p2180
S'-6.2474283'
p2181
tp2182
I2
s(S'107.6363296'
p2183
S'-6.9194842'
p2184
tp2185
I2
s(S'106.879792'
p2186
S'-6.356087199999999'
p2187
tp2188
I2
s(S'106.86572530000001'
p2189
S'-6.4361714'
p2190
tp2191
I0
s(S'106.7741231'
p2192
S'-6.1214349'
p2193
tp2194
I2
s(S'107.03038509999999'
p2195
S'-6.709321'
p2196
tp2197
I0
s(S'106.8974964'
p2198
S'-6.3759742'
p2199
tp2200
I0
s(S'112.8999225'
p2201
S'-7.6469193'
p2202
tp2203
I2
s(S'107.4458174111146'
p2204
S'-6.464429691769955'
p2205
tp2206
I0
s(S'106.98309080000001'
p2207
S'-6.2335635'
p2208
tp2209
I2
s(S'107.00443089999999'
p2210
S'-6.177332499999999'
p2211
tp2212
I0
s(S'106.80638287777106'
p2213
S'-6.385303381455449'
p2214
tp2215
I0
s(S'107.02332539999998'
p2216
S'-6.319696899999999'
p2217
tp2218
I2
s(S'107.5259078'
p2219
S'-7.025202'
p2220
tp2221
I0
s(S'106.81621240000004'
p2222
S'-6.2842379'
p2223
tp2224
I0
s(S'106.86050410000007'
p2225
S'-6.5867377'
p2226
tp2227
I2
s(S'106.81806559999995'
p2228
S'-6.193935199999999'
p2229
tp2230
I0
s(S'110.40678330000003'
p2231
S'-7.7016288'
p2232
tp2233
I0
s(S'106.8679899'
p2234
S'-6.366721'
p2235
tp2236
I0
s(S'106.948594'
p2237
S'-6.212254'
p2238
tp2239
I0
s(S'112.65855429999999'
p2240
S'-7.891740400000001'
p2241
tp2242
I0
s(S'112.794445'
p2243
S'-7.2559088'
p2244
tp2245
I0
s(S'106.9766515'
p2246
S'-6.1926279'
p2247
tp2248
I0
s(S'106.773595'
p2249
S'-6.724376'
p2250
tp2251
I2
s(S'106.8502879'
p2252
S'-6.1475204'
p2253
tp2254
I0
s(S'106.40230999999994'
p2255
S'-6.269263599999999'
p2256
tp2257
I2
s(S'107.03428699999995'
p2258
S'-6.4597141'
p2259
tp2260
I0
s(S'106.5701927'
p2261
S'-6.235727199999999'
p2262
tp2263
I2
s(S'106.8243277'
p2264
S'-6.3282939'
p2265
tp2266
I0
s(S'112.74320139999998'
p2267
S'-7.3397942'
p2268
tp2269
I0
s(S'115.16816530000006'
p2270
S'-8.691289399999999'
p2271
tp2272
I0
s(S'112.75456956406254'
p2273
S'-7.385540329252505'
p2274
tp2275
I2
s(S'106.8474185566223'
p2276
S'-6.405569840590687'
p2277
tp2278
I0
s(S'107.06280200000003'
p2279
S'-6.2681716'
p2280
tp2281
I2
s(S'106.78668300000004'
p2282
S'-6.233914'
p2283
tp2284
I0
s(S'106.6614541'
p2285
S'-6.1851888'
p2286
tp2287
I0
s(S'106.79226689999996'
p2288
S'-6.1564866'
p2289
tp2290
I0
s(S'106.79107462327875'
p2291
S'-6.395941696758506'
p2292
tp2293
I0
s(S'106.74983539999994'
p2294
S'-6.6033867'
p2295
tp2296
I0
s(S'112.68481083013307'
p2297
S'-7.290786098421331'
p2298
tp2299
I0
s(S'106.7207624'
p2300
S'-6.1350071'
p2301
tp2302
I0
s(S'115.16401050000002'
p2303
S'-8.6679912'
p2304
tp2305
I0
s(S'106.81360660157475'
p2306
S'-6.320171141514356'
p2307
tp2308
I0
s(S'98.6722227'
p2309
S'3.5951956'
p2310
tp2311
I2
s(S'112.79923770000005'
p2312
S'-7.260491399999999'
p2313
tp2314
I0
s(S'106.80244618437803'
p2315
S'-6.316367234075708'
p2316
tp2317
I0
s(S'106.7664801'
p2318
S'-6.5995719'
p2319
tp2320
I0
s(S'112.75543459999994'
p2321
S'-7.282603000000001'
p2322
tp2323
I0
s(S'107.6191228'
p2324
S'-6.9174639'
p2325
tp2326
I2
s(S'106.98046499999998'
p2327
S'-6.177143'
p2328
tp2329
I2
s(S'106.67990940000004'
p2330
S'-6.2940767'
p2331
tp2332
I0
s(S'106.81685919999995'
p2333
S'-6.197304000000001'
p2334
tp2335
I0
s(S'106.8122226'
p2336
S'-6.3271394'
p2337
tp2338
I0
s(S'106.79815676980593'
p2339
S'-6.26230932304399'
p2340
tp2341
I0
s(S'106.68794479999997'
p2342
S'-6.315140856894987'
p2343
tp2344
I0
s(S'106.97821115211'
p2345
S'-6.2497263468868'
p2346
tp2347
I0
s(S'106.7411559'
p2348
S'-6.3991308'
p2349
tp2350
I2
s(S'106.75000249999994'
p2351
S'-6.442421700000001'
p2352
tp2353
I0
s(S'112.74798620000001'
p2354
S'-7.334617400000001'
p2355
tp2356
I0
s(S'106.8285161'
p2357
S'-6.4213507'
p2358
tp2359
I0
s(S'112.8016136'
p2360
S'-7.2663279'
p2361
tp2362
I2
s(S'106.88609910000002'
p2363
S'-6.5822623'
p2364
tp2365
I2
s(S'112.80608239999992'
p2366
S'-7.2799289'
p2367
tp2368
I2
s(S'106.78789699999993'
p2369
S'-6.174224'
p2370
tp2371
I0
s(S'106.83409110000002'
p2372
S'-6.1864864'
p2373
tp2374
I2
s(S'106.6880950037048'
p2375
S'-6.315396786415378'
p2376
tp2377
I0
s(S'110.335403'
p2378
S'-7.716165'
p2379
tp2380
I2
s(S'112.60041419999993'
p2381
S'-7.9739011'
p2382
tp2383
I0
s(S'106.979086899999'
p2384
S'-6.1919992'
p2385
tp2386
I0
s(S'107.4934'
p2387
S'-6.8523313'
p2388
tp2389
I0
s(S'106.82078750000005'
p2390
S'-6.3631747'
p2391
tp2392
I2
s(S'106.99510280000004'
p2393
S'-6.1567495'
p2394
tp2395
I0
s(S'106.5996595'
p2396
S'-6.1989828'
p2397
tp2398
I2
s(S'106.8207875'
p2399
S'-6.3273371'
p2400
tp2401
I0
s(S'106.85476340000002'
p2402
S'-6.1465128'
p2403
tp2404
I0
s(S'106.71353120000003'
p2405
S'-6.1781513'
p2406
tp2407
I0
s(S'107.64850290000004'
p2408
S'-6.9551057'
p2409
tp2410
I0
s(S'112.6556213'
p2411
S'-8.1129703'
p2412
tp2413
I2
s(S'106.69749239999999'
p2414
S'-6.2845749'
p2415
tp2416
I2
s(S'110.466428'
p2417
S'-7.0203796'
p2418
tp2419
I0
s(S'106.81341210000005'
p2420
S'-6.2622411'
p2421
tp2422
I0
s(S'106.68897476826169'
p2423
S'-6.314543687522085'
p2424
tp2425
I0
s(S'106.9602393'
p2426
S'-6.2931302'
p2427
tp2428
I0
s(S'106.69011559021305'
p2429
S'-6.240096601249351'
p2430
tp2431
I0
s(S'106.82450352534784'
p2432
S'-6.387009522815458'
p2433
tp2434
I0
s(S'106.79793664788508'
p2435
S'-6.3930944712428435'
p2436
tp2437
I0
s(S'106.955556'
p2438
S'-6.2022312'
p2439
tp2440
I0
s(S'106.76974399999995'
p2441
S'-6.237621'
p2442
tp2443
I0
s(S'109.3630963'
p2444
S'-0.0155493'
p2445
tp2446
I0
s(S'106.6703963'
p2447
S'-6.3502256'
p2448
tp2449
I0
s(S'112.79361360000007'
p2450
S'-7.2370696'
p2451
tp2452
I0
s(S'112.53344919999995'
p2453
S'-7.883064800000001'
p2454
tp2455
I0
s(S'106.823487'
p2456
S'-6.202396999999999'
p2457
tp2458
I0
s(S'112.73565237838739'
p2459
S'-7.29949135620892'
p2460
tp2461
I0
s(S'106.8223457'
p2462
S'-6.2098892'
p2463
tp2464
I0
s(S'106.77654430000007'
p2465
S'-6.377453399999999'
p2466
tp2467
I0
s(S'106.9270066'
p2468
S'-6.3033511'
p2469
tp2470
I2
s(S'106.79660260000003'
p2471
S'-6.4320657'
p2472
tp2473
I0
s(S'106.8222625'
p2474
S'-6.2365111'
p2475
tp2476
I0
s(S'106.75218749999999'
p2477
S'-6.1124664'
p2478
tp2479
I0
s(S'101.70682940000006'
p2480
S'0.2933469'
p2481
tp2482
I2
s(S'106.80772179999997'
p2483
S'-6.638412199999999'
p2484
tp2485
I0
s(S'107.038094'
p2486
S'-6.445609'
p2487
tp2488
I0
s(S'112.76826770000002'
p2489
S'-7.286351959592205'
p2490
tp2491
I0
s(S'107.61562060000006'
p2492
S'-6.882776199999999'
p2493
tp2494
I0
s(S'112.7330892'
p2495
S'-7.3933814'
p2496
tp2497
I0
s(S'106.82383819999995'
p2498
S'-6.265994900000001'
p2499
tp2500
I0
s(S'106.86047710000003'
p2501
S'-6.5866775'
p2502
tp2503
I0
s(S'112.7689092894409'
p2504
S'-7.2900058636802845'
p2505
tp2506
I0
s(S'107.65774550000003'
p2507
S'-6.913005999999999'
p2508
tp2509
I0
s(S'106.89796339999998'
p2510
S'-6.1411267'
p2511
tp2512
I0
s(S'106.75291300000004'
p2513
S'-6.4189174'
p2514
tp2515
I0
s(S'106.79687139999999'
p2516
S'-6.436401699999999'
p2517
tp2518
I0
s(S'106.6493689'
p2519
S'-6.2457819'
p2520
tp2521
I2
s(S'106.94621740000002'
p2522
S'-6.1709491'
p2523
tp2524
I0
s(S'106.99854789999995'
p2525
S'-6.2359122'
p2526
tp2527
I2
s(S'106.83258720000003'
p2528
S'-6.2553397'
p2529
tp2530
I2
s(S'107.71396979999997'
p2531
S'-6.9176456'
p2532
tp2533
I0
s(S'106.82766570000001'
p2534
S'-6.226407500000001'
p2535
tp2536
I0
s(S'106.79173220000007'
p2537
S'-6.2823664'
p2538
tp2539
I0
s(S'106.87465507811294'
p2540
S'-6.552616560033837'
p2541
tp2542
I2
s(S'112.77796130000002'
p2543
S'-7.2543236'
p2544
tp2545
I0
s(S'106.6794052'
p2546
S'-6.3055599'
p2547
tp2548
I0
s(S'106.70282500000008'
p2549
S'-6.295392199999999'
p2550
tp2551
I2
s(S'106.9181532'
p2552
S'-6.2295409'
p2553
tp2554
I0
s(S'106.8355721'
p2555
S'-6.305136'
p2556
tp2557
I0
s(S'112.802411'
p2558
S'-7.3275001'
p2559
tp2560
I0
s(S'106.517591'
p2561
S'-6.2429128'
p2562
tp2563
I0
s(S'110.3010938'
p2564
S'-7.7735423'
p2565
tp2566
I2
s(S'106.85838569999999'
p2567
S'-6.2262143'
p2568
tp2569
I0
s(S'106.9094311'
p2570
S'-6.1527599'
p2571
tp2572
I0
s(S'106.65102309999997'
p2573
S'-6.254085700000001'
p2574
tp2575
I0
s(S'106.9860384'
p2576
S'-6.1839269'
p2577
tp2578
I0
s(S'106.70934850000003'
p2579
S'-6.0938841'
p2580
tp2581
I0
s(S'106.7617984'
p2582
S'-6.6063841'
p2583
tp2584
I0
s(S'106.68837395344235'
p2585
S'-6.315354131504094'
p2586
tp2587
I0
s(S'106.818329'
p2588
S'-6.703067'
p2589
tp2590
I2
s(S'106.69400930000006'
p2591
S'-6.133225899999999'
p2592
tp2593
I0
s(S'106.7393133'
p2594
S'-6.1083653'
p2595
tp2596
I0
s(S'112.7926759'
p2597
S'-7.269315'
p2598
tp2599
I0
s(S'112.69354129999999'
p2600
S'-7.282466700000001'
p2601
tp2602
I0
s(S'106.79719'
p2603
S'-6.3076465'
p2604
tp2605
I0
s(S'106.61836895545'
p2606
S'-6.2943782087885'
p2607
tp2608
I0
s(S'106.71153979999997'
p2609
S'-6.1809352'
p2610
tp2611
I0
s(S'106.7986674'
p2612
S'-6.375867599999999'
p2613
tp2614
I0
s(S'112.6326321'
p2615
S'-7.9666204'
p2616
tp2617
I2
s(S'106.8591387'
p2618
S'-6.3644564'
p2619
tp2620
I0
s(S'106.92995789999998'
p2621
S'-6.2393686'
p2622
tp2623
I0
s(S'106.83134029999997'
p2624
S'-6.3783316'
p2625
tp2626
I0
s(S'106.9730344'
p2627
S'-6.1687273'
p2628
tp2629
I0
s(S'106.41044250000004'
p2630
S'-6.261768099999999'
p2631
tp2632
I0
s(S'107.03563200000008'
p2633
S'-6.220960499999999'
p2634
tp2635
I0
s(S'110.3133077'
p2636
S'-7.8341783'
p2637
tp2638
I0
s(S'107.60422719999997'
p2639
S'-6.892516'
p2640
tp2641
I0
s(S'106.8148879'
p2642
S'-6.4966731'
p2643
tp2644
I0
s(S'107.0007481'
p2645
S'-6.1687199'
p2646
tp2647
I0
s(S'107.06014049999999'
p2648
S'-6.2489826'
p2649
tp2650
I0
s(S'106.85375829999998'
p2651
S'-6.135209199999999'
p2652
tp2653
I0
s(S'106.77011909999999'
p2654
S'-6.4048835'
p2655
tp2656
I0
s(S'115.1592718'
p2657
S'-8.8211166'
p2658
tp2659
I0
s(S'106.80629148070375'
p2660
S'-6.394145262345598'
p2661
tp2662
I0
s(S'107.6965338'
p2663
S'-6.9152318'
p2664
tp2665
I2
s(S'107.038063'
p2666
S'-6.445556'
p2667
tp2668
I0
s(S'106.85028790000001'
p2669
S'-6.5211331'
p2670
tp2671
I0
s(S'106.6196453'
p2672
S'-6.243345'
p2673
tp2674
I0
s(S'107.02205530000003'
p2675
S'-6.3454232'
p2676
tp2677
I2
s(S'106.70777399999997'
p2678
S'-6.1417316'
p2679
tp2680
I0
s(S'106.947342'
p2681
S'-6.21135'
p2682
tp2683
I0
s(S'106.74669510000001'
p2684
S'-6.316026099999999'
p2685
tp2686
I0
s(S'110.469498'
p2687
S'-7.757892'
p2688
tp2689
I2
s(S'107.7139698'
p2690
S'-6.9176456'
p2691
tp2692
I0
s(S'106.9190657'
p2693
S'-6.1675771'
p2694
tp2695
I0
s(S'106.96537560000002'
p2696
S'-6.2382027'
p2697
tp2698
I2
s(S'106.7129708'
p2699
S'-6.17791459999999'
p2700
tp2701
I0
s(S'112.68611499999997'
p2702
S'-7.3157884'
p2703
tp2704
I0
s(S'106.703677'
p2705
S'-6.165965'
p2706
tp2707
I2
s(S'106.81719250000003'
p2708
S'-6.4041917'
p2709
tp2710
I2
s(S'106.4994889'
p2711
S'-6.1152896'
p2712
tp2713
I2
s(S'107.58133559999999'
p2714
S'-6.8862041'
p2715
tp2716
I0
s(S'115.1162829'
p2717
S'-8.5419151'
p2718
tp2719
I2
s(S'106.69399729999998'
p2720
S'-6.133227499999999'
p2721
tp2722
I0
s(S'110.42025050000007'
p2723
S'-6.9805495'
p2724
tp2725
I2
s(S'106.7793417'
p2726
S'-6.1157649'
p2727
tp2728
I0
s(S'106.81153629999994'
p2729
S'-6.3199193'
p2730
tp2731
I0
s(S'106.81639799999994'
p2732
S'-6.365168'
p2733
tp2734
I0
s(S'106.76479949999998'
p2735
S'-6.6020268'
p2736
tp2737
I0
s(S'106.68815937672116'
p2738
S'-6.31531147658931'
p2739
tp2740
I0
s(S'106.791291'
p2741
S'-6.190262199999999'
p2742
tp2743
I0
s(S'131.5161966'
p2744
S'2.4420851'
p2745
tp2746
I2
s(S'106.9963242'
p2747
S'-6.2297386'
p2748
tp2749
I0
s(S'107.1537614'
p2750
S'-6.3345998'
p2751
tp2752
I2
s(S'110.8147329'
p2753
S'-7.6830294'
p2754
tp2755
I2
s(S'106.89159480000001'
p2756
S'-6.207429299999999'
p2757
tp2758
I2
s(S'106.80603880000001'
p2759
S'-6.2689913'
p2760
tp2761
I2
s(S'106.7836822'
p2762
S'-6.1800455'
p2763
tp2764
I0
s(S'107.01212090000001'
p2765
S'-6.1821343'
p2766
tp2767
I0
s(S'106.62323590000005'
p2768
S'-6.147132999999999'
p2769
tp2770
I2
s(S'108.55000599999994'
p2771
S'-6.712058'
p2772
tp2773
I0
s(S'112.68047860000001'
p2774
S'-7.2857489'
p2775
tp2776
I0
s(S'106.8207875'
p2777
S'-6.399033699999999'
p2778
tp2779
I2
s(S'106.8384873'
p2780
S'-6.4189393'
p2781
tp2782
I2
s(S'106.90882639999995'
p2783
S'-6.393021099999999'
p2784
tp2785
I0
s(S'103.9201994'
p2786
S'1.0600802'
p2787
tp2788
I2
s(S'106.66629369999998'
p2789
S'-6.267434'
p2790
tp2791
I0
s(S'107.71107514124753'
p2792
S'-6.91827704651216'
p2793
tp2794
I0
s(S'112.64966200000003'
p2795
S'-7.955344800000001'
p2796
tp2797
I2
s(S'110.4214189'
p2798
S'-7.0601193'
p2799
tp2800
I0
s(S'106.9036692'
p2801
S'-6.3762354'
p2802
tp2803
I0
s(S'106.61534141583'
p2804
S'-6.2562027815638'
p2805
tp2806
I0
s(S'106.68822374973752'
p2807
S'-6.315375458960181'
p2808
tp2809
I0
s(S'106.75381519999996'
p2810
S'-6.1079911'
p2811
tp2812
I2
s(S'106.9801346'
p2813
S'-6.2607006'
p2814
tp2815
I2
s(S'106.94812139999999'
p2816
S'-6.2084546'
p2817
tp2818
I0
s(S'106.79999999999995'
p2819
S'-6.6'
p2820
tp2821
I2
s(S'117.1436154'
p2822
S'-0.4948232'
p2823
tp2824
I2
s(S'107.57559200000003'
p2825
S'-6.8824595'
p2826
tp2827
I0
s(S'106.81419470000003'
p2828
S'-6.4930071'
p2829
tp2830
I0
s(S'106.85088429999996'
p2831
S'-6.575895699999999'
p2832
tp2833
I0
s(S'106.8237374'
p2834
S'-6.2939813'
p2835
tp2836
I2
s(S'106.78658926455682'
p2837
S'-6.412538751433644'
p2838
tp2839
I0
s(S'112.6519882'
p2840
S'-7.1652437'
p2841
tp2842
I2
s(S'106.9299579'
p2843
S'-6.1474953'
p2844
tp2845
I2
s(S'106.9152021'
p2846
S'-6.3856211'
p2847
tp2848
I2
s(S'112.6854173'
p2849
S'-7.3152565'
p2850
tp2851
I2
s(S'106.85860100000002'
p2852
S'-6.2071831'
p2853
tp2854
I0
s(S'112.64496380000003'
p2855
S'-7.2889068'
p2856
tp2857
I0
s(S'106.77925564072257'
p2858
S'-6.409412292898641'
p2859
tp2860
I0
s(S'103.61000000000001'
p2861
S'-1.59'
p2862
tp2863
I2
s(S'112.76573540000004'
p2864
S'-7.304791799999999'
p2865
tp2866
I0
s(S'107.08937979999996'
p2867
S'-6.300487899999999'
p2868
tp2869
I2
s(S'107.67859650000003'
p2870
S'-6.9215086'
p2871
tp2872
I0
s(S'106.1639749'
p2873
S'-6.1103661'
p2874
tp2875
I2
s(S'114.58998999999994'
p2876
S'-3.298983100000001'
p2877
tp2878
I2
s(S'106.72535110000001'
p2879
S'-6.2701932'
p2880
tp2881
I0
s(S'106.7038807'
p2882
S'-6.1155711'
p2883
tp2884
I0
s(S'107.627451'
p2885
S'-6.9326938'
p2886
tp2887
I0
s(S'115.1752277'
p2888
S'-8.7237964'
p2889
tp2890
I0
s(S'106.844571'
p2891
S'-6.2841169'
p2892
tp2893
I0
s(S'106.65223729569'
p2894
S'-6.3065718515045'
p2895
tp2896
I0
s(S'107.29211039999996'
p2897
S'-6.3234235'
p2898
tp2899
I0
s(S'107.64896769999996'
p2900
S'-6.9431017'
p2901
tp2902
I2
s(S'110.43453709999994'
p2903
S'-7.7369859'
p2904
tp2905
I0
s(S'106.79724140000008'
p2906
S'-6.191883199999999'
p2907
tp2908
I2
s(S'112.63327370000002'
p2909
S'-7.4529857'
p2910
tp2911
I2
s(S'112.7806534'
p2912
S'-7.2905789'
p2913
tp2914
I0
s(S'106.58957269999996'
p2915
S'-6.1192749'
p2916
tp2917
I0
s(S'106.68794479999997'
p2918
S'-6.315396786415378'
p2919
tp2920
I0
s(S'106.635025'
p2921
S'-6.2796882'
p2922
tp2923
I0
s(S'107.5911453'
p2924
S'-6.867414'
p2925
tp2926
I0
s(S'106.9476481'
p2927
S'-6.2086852'
p2928
tp2929
I0
s(S'106.8273257'
p2930
S'-6.2991535'
p2931
tp2932
I0
s(S'107.612654'
p2933
S'-6.940982'
p2934
tp2935
I0
s(S'112.7717447'
p2936
S'-7.266341699999999'
p2937
tp2938
I0
s(S'112.67331852676'
p2939
S'-7.291660191594'
p2940
tp2941
I0
s(S'107.44440120475474'
p2942
S'-6.4666684173302205'
p2943
tp2944
I0
s(S'106.97912240000005'
p2945
S'-6.192044399999999'
p2946
tp2947
I0
s(S'106.78814'
p2948
S'-6.165859999999999'
p2949
tp2950
I0
s(S'106.7103834'
p2951
S'-6.1242237'
p2952
tp2953
I0
s(S'106.81825129999993'
p2954
S'-6.2737058'
p2955
tp2956
I0
s(S'107.6725848'
p2957
S'-6.9036986'
p2958
tp2959
I0
s(S'106.06401789999995'
p2960
S'-6.4058172'
p2961
tp2962
I2
s(S'104.46650720000002'
p2963
S'0.9185504'
p2964
tp2965
I2
s(S'106.97705329999997'
p2966
S'-6.170036899999999'
p2967
tp2968
I2
s(S'106.80041600000004'
p2969
S'-6.285310099999999'
p2970
tp2971
I0
s(S'107.64816819999999'
p2972
S'-6.924181900000001'
p2973
tp2974
I0
s(S'107.5956817'
p2975
S'-6.976041299999999'
p2976
tp2977
I2
s(S'106.43175329999997'
p2978
S'-6.227359'
p2979
tp2980
I2
s(S'106.5230542'
p2981
S'-6.2167736'
p2982
tp2983
I0
s(S'106.76179839999998'
p2984
S'-6.6063841'
p2985
tp2986
I0
s(S'107.32023329999993'
p2987
S'-6.305400199999999'
p2988
tp2989
I2
s(S'106.807938'
p2990
S'-6.6381109'
p2991
tp2992
I0
s(S'106.76648009999997'
p2993
S'-6.5995719'
p2994
tp2995
I0
s(S'110.46949799999993'
p2996
S'-7.757892'
p2997
tp2998
I2
s(S'107.1305625'
p2999
S'-6.321955099999999'
p3000
tp3001
I0
s(S'106.751477'
p3002
S'-6.3309077'
p3003
tp3004
I0
s(S'106.85295297259'
p3005
S'-6.1479074757291'
p3006
tp3007
I0
s(S'106.8325872'
p3008
S'-6.194031'
p3009
tp3010
I2
s(S'107.1602683'
p3011
S'-6.2776791'
p3012
tp3013
I2
s(S'106.88404809999997'
p3014
S'-6.576917099999999'
p3015
tp3016
I0
s(S'112.6139055'
p3017
S'-7.9981302'
p3018
tp3019
I2
s(S'106.8075136'
p3020
S'-6.1705904'
p3021
tp3022
I0
s(S'106.6320777'
p3023
S'-6.2977013'
p3024
tp3025
I0
s(S'115.1696351'
p3026
S'-8.778577'
p3027
tp3028
I2
s(S'112.79706599999997'
p3029
S'-7.2619467'
p3030
tp3031
I0
s(S'106.4157735'
p3032
S'-6.281950699999999'
p3033
tp3034
I0
s(S'107.61265400000002'
p3035
S'-6.8586297'
p3036
tp3037
I0
s(S'106.7684194'
p3038
S'-6.4728474'
p3039
tp3040
I0
s(S'106.9950903'
p3041
S'-6.1802702'
p3042
tp3043
I0
s(S'106.83934099999999'
p3044
S'-6.485328099999999'
p3045
tp3046
I0
s(S'112.7896966'
p3047
S'-7.3374381'
p3048
tp3049
I0
s(S'106.75701188814082'
p3050
S'-6.27060690634344'
p3051
tp3052
I0
s(S'106.83069509999996'
p3053
S'-6.4901067'
p3054
tp3055
I0
s(S'106.805172188916'
p3056
S'-6.383217138429694'
p3057
tp3058
I0
s(S'106.84012310000003'
p3059
S'-6.3027937'
p3060
tp3061
I0
s(S'106.785392'
p3062
S'-6.389968'
p3063
tp3064
I2
s(S'106.6939625'
p3065
S'-6.5753118'
p3066
tp3067
I2
s(S'107.57300146613147'
p3068
S'-6.86825550959108'
p3069
tp3070
I0
s(S'106.97388369999999'
p3071
S'-6.1956431'
p3072
tp3073
I2
s(S'109.23963660000004'
p3074
S'-7.4242782'
p3075
tp3076
I2
s(S'112.66210709999996'
p3077
S'-8.0395982'
p3078
tp3079
I0
s(S'106.80922809999993'
p3080
S'-6.704426'
p3081
tp3082
I0
s(S'106.7523146'
p3083
S'-6.1854972'
p3084
tp3085
I0
s(S'106.6143944'
p3086
S'-6.2368628'
p3087
tp3088
I2
s(S'112.6586009'
p3089
S'-7.3040734'
p3090
tp3091
I0
s(S'106.8237374'
p3092
S'-6.570837699999999'
p3093
tp3094
I2
s(S'110.44968459999996'
p3095
S'-7.751938300000001'
p3096
tp3097
I2
s(S'106.81635299999994'
p3098
S'-6.270347999999999'
p3099
tp3100
I0
s(S'106.81617566137697'
p3101
S'-6.37023983775528'
p3102
tp3103
I0
s(S'106.82979'
p3104
S'-6.27831'
p3105
tp3106
I0
s(S'106.79755909999994'
p3107
S'-6.2717565'
p3108
tp3109
I0
s(S'106.6537516'
p3110
S'-6.2420259'
p3111
tp3112
I0
s(S'106.9860384'
p3113
S'-6.1941316'
p3114
tp3115
I0
s(S'106.85344899999996'
p3116
S'-6.3858342'
p3117
tp3118
I2
s(S'112.69244634237'
p3119
S'-7.278540764103'
p3120
tp3121
I0
s(S'106.77949349999994'
p3122
S'-6.4260468'
p3123
tp3124
I0
s(S'98.6684186'
p3125
S'3.5203598'
p3126
tp3127
I0
s(S'107.66256880000003'
p3128
S'-6.892238'
p3129
tp3130
I0
s(S'112.58669510000004'
p3131
S'-7.957407799999999'
p3132
tp3133
I0
s(S'112.59494837727675'
p3134
S'-7.3447215855100465'
p3135
tp3136
I0
s(S'106.93643433909233'
p3137
S'-6.685103298018703'
p3138
tp3139
I0
s(S'106.7961295'
p3140
S'-6.4210271'
p3141
tp3142
I0
s(S'106.97570680000001'
p3143
S'-6.2289259'
p3144
tp3145
I0
s(S'106.8565586598022'
p3146
S'-6.252779579440539'
p3147
tp3148
I0
s(S'106.70362169999999'
p3149
S'-6.1503009'
p3150
tp3151
I0
s(S'106.6558546'
p3152
S'-6.3124943'
p3153
tp3154
I0
s(S'112.2384017'
p3155
S'-7.5360639'
p3156
tp3157
I2
s(S'115.2748682'
p3158
S'-8.46161'
p3159
tp3160
I0
s(S'112.6474692'
p3161
S'-8.0036459'
p3162
tp3163
I0
s(S'106.828594'
p3164
S'-6.419891'
p3165
tp3166
I0
s(S'106.77129059999993'
p3167
S'-6.552484'
p3168
tp3169
I2
s(S'112.79237820000003'
p3170
S'-7.253998699999999'
p3171
tp3172
I0
s(S'107.6266329'
p3173
S'-6.883367'
p3174
tp3175
I0
s(S'106.813134'
p3176
S'-6.3112614'
p3177
tp3178
I2
s(S'112.7108313'
p3179
S'-7.955575'
p3180
tp3181
I0
s(S'112.67378559999997'
p3182
S'-7.394667'
p3183
tp3184
I0
s(S'106.85382709999999'
p3185
S'-6.398897799999999'
p3186
tp3187
I0
s(S'112.6747772'
p3188
S'-7.295524899999999'
p3189
tp3190
I0
s(S'107.4783823'
p3191
S'-6.8436457'
p3192
tp3193
I2
s(S'110.4202505'
p3194
S'-6.9805495'
p3195
tp3196
I2
s(S'106.71530419999999'
p3197
S'-6.3512507'
p3198
tp3199
I0
s(S'106.76179839999998'
p3200
S'-6.3651357'
p3201
tp3202
I2
s(S'106.7093485'
p3203
S'-6.0938841'
p3204
tp3205
I0
s(S'107.0018493'
p3206
S'-6.1695083'
p3207
tp3208
I0
s(S'106.8016144'
p3209
S'-6.6242977'
p3210
tp3211
I0
s(S'112.53139839999994'
p3212
S'-7.894414200000001'
p3213
tp3214
I0
s(S'107.62893069999996'
p3215
S'-6.939074400000001'
p3216
tp3217
I0
s(S'112.64279859999999'
p3218
S'-8.0607404'
p3219
tp3220
I0
s(S'106.75884940000003'
p3221
S'-6.1683295'
p3222
tp3223
I2
s(S'107.7813872'
p3224
S'-6.9370992'
p3225
tp3226
I0
s(S'101.4326284'
p3227
S'0.5611452'
p3228
tp3229
I0
s(S'107.6'
p3230
S'-6.9'
p3231
tp3232
I2
s(S'107.5732589581969'
p3233
S'-6.868489850085052'
p3234
tp3235
I0
s(S'106.9240554'
p3236
S'-6.4288646'
p3237
tp3238
I2
s(S'106.80810739999993'
p3239
S'-6.636803899999999'
p3240
tp3241
I0
s(S'109.40097319999995'
p3242
S'-0.1739023'
p3243
tp3244
I2
s(S'107.0336275'
p3245
S'-6.7070376'
p3246
tp3247
I0
s(S'106.9445022'
p3248
S'-6.2114979'
p3249
tp3250
I2
s(S'107.68082930000003'
p3251
S'-6.9177267'
p3252
tp3253
I0
s(S'106.6882022920654'
p3254
S'-6.315439441323139'
p3255
tp3256
I0
s(S'106.80013959999997'
p3257
S'-6.2845276'
p3258
tp3259
I2
s(S'106.7647475'
p3260
S'-6.1222055'
p3261
tp3262
I2
s(S'106.66740189999996'
p3263
S'-6.190161799999999'
p3264
tp3265
I0
s(S'112.81353039999999'
p3266
S'-7.326097099999999'
p3267
tp3268
I2
s(S'106.8384873'
p3269
S'-6.1325959'
p3270
tp3271
I2
s(S'106.948161'
p3272
S'-6.386963'
p3273
tp3274
I0
s(S'106.79061887039188'
p3275
S'-6.177295979849651'
p3276
tp3277
I0
s(S'109.30694319999998'
p3278
S'-0.2295518'
p3279
tp3280
I2
s(S'111.4991334'
p3281
S'0.052098'
p3282
tp3283
I0
s(S'107.003598'
p3284
S'-6.1763049'
p3285
tp3286
I0
s(S'106.8028559'
p3287
S'-6.6256207'
p3288
tp3289
I0
s(S'107.6474283'
p3290
S'-6.9042641'
p3291
tp3292
I2
s(S'107.57308729681995'
p3293
S'-6.868298116962206'
p3294
tp3295
I0
s(S'106.7798811'
p3296
S'-6.2300428'
p3297
tp3298
I2
s(S'106.85987895977178'
p3299
S'-6.419616497820282'
p3300
tp3301
I0
s(S'106.85321599999997'
p3302
S'-6.5683047'
p3303
tp3304
I0
s(S'112.63167499999997'
p3305
S'-7.981976099999999'
p3306
tp3307
I0
s(S'106.8370122'
p3308
S'-6.264140599999999'
p3309
tp3310
I0
s(S'116.8528526'
p3311
S'-1.2379274'
p3312
tp3313
I2
s(S'101.44777929999998'
p3314
S'0.5070677'
p3315
tp3316
I2
s(S'112.7172481'
p3317
S'-7.291439'
p3318
tp3319
I0
s(S'106.7036766'
p3320
S'-6.1659651'
p3321
tp3322
I2
s(S'106.85914290000005'
p3323
S'-6.2817607'
p3324
tp3325
I0
s(S'106.71305329999996'
p3326
S'-6.26174'
p3327
tp3328
I0
s(S'107.59622439999998'
p3329
S'-6.8624127'
p3330
tp3331
I0
s(S'106.68768730793454'
p3332
S'-6.3153328040471415'
p3333
tp3334
I0
s(S'106.75514509999994'
p3335
S'-6.4863547'
p3336
tp3337
I2
s(S'110.3815228'
p3338
S'-7.7361251'
p3339
tp3340
I2
s(S'109.5538573'
p3341
S'-7.4473901'
p3342
tp3343
I2
s(S'112.6556213'
p3344
S'-8.0110139'
p3345
tp3346
I2
s(S'106.96773339311517'
p3347
S'-6.254804698954149'
p3348
tp3349
I0
s(S'110.38696319999997'
p3350
S'-7.7335214'
p3351
tp3352
I0
s(S'106.73495760000003'
p3353
S'-6.5766978'
p3354
tp3355
I0
s(S'106.9990215'
p3356
S'-6.7028188'
p3357
tp3358
I2
s(S'106.83698030000005'
p3359
S'-6.279445399999999'
p3360
tp3361
I0
s(S'115.1770586'
p3362
S'-8.5819296'
p3363
tp3364
I0
s(S'106.7617984'
p3365
S'-6.1810006'
p3366
tp3367
I0
s(S'107.5875009'
p3368
S'-6.8660066'
p3369
tp3370
I0
s(S'106.92373450000002'
p3371
S'-6.3424087'
p3372
tp3373
I0
s(S'106.86395600000003'
p3374
S'-6.1384145'
p3375
tp3376
I2
s(S'106.84012140000004'
p3377
S'-6.3028176'
p3378
tp3379
I0
s(S'106.79712180000001'
p3380
S'-6.260589599999999'
p3381
tp3382
I0
s(S'106.88890130000004'
p3383
S'-6.147212199999999'
p3384
tp3385
I2
s(S'106.79101792963866'
p3386
S'-6.347696240156825'
p3387
tp3388
I0
s(S'107.66115930000001'
p3389
S'-6.9443228'
p3390
tp3391
I0
s(S'107.58755969999993'
p3392
S'-6.964477199999999'
p3393
tp3394
I0
s(S'107.0230785'
p3395
S'-6.7142252'
p3396
tp3397
I0
s(S'106.91778269999998'
p3398
S'-6.376489299999999'
p3399
tp3400
I2
s(S'106.7647475'
p3401
S'-6.459881500000001'
p3402
tp3403
I0
s(S'106.8727063'
p3404
S'-6.3462859'
p3405
tp3406
I2
s(S'106.7647475'
p3407
S'-6.5728619'
p3408
tp3409
I2
s(S'106.81857519999994'
p3410
S'-6.145353000000001'
p3411
tp3412
I0
s(S'106.78819321017'
p3413
S'-6.1746806597424'
p3414
tp3415
I0
s(S'106.74064812107'
p3416
S'-6.1889929384082'
p3417
tp3418
I0
s(S'107.668887'
p3419
S'-7.090911'
p3420
tp3421
I2
s(S'106.97693030000005'
p3422
S'-6.1940985'
p3423
tp3424
I0
s(S'106.80398433809819'
p3425
S'-6.374414100000006'
p3426
tp3427
I0
s(S'107.65835379999999'
p3428
S'-6.9394579'
p3429
tp3430
I0
s(S'106.80742529999998'
p3431
S'-6.2305195'
p3432
tp3433
I0
s(S'106.79594868703305'
p3434
S'-6.163943825464526'
p3435
tp3436
I0
s(S'112.52404739999997'
p3437
S'-7.879386800000001'
p3438
tp3439
I0
s(S'106.8473377'
p3440
S'-6.1603721'
p3441
tp3442
I0
s(S'106.71661259999996'
p3443
S'-6.2645583'
p3444
tp3445
I0
s(S'106.89667439999994'
p3446
S'-6.1554382'
p3447
tp3448
I0
s(S'106.947598'
p3449
S'-6.207972'
p3450
tp3451
I0
s(S'107.70736880000004'
p3452
S'-6.9064866'
p3453
tp3454
I2
s(S'107.60883160000003'
p3455
S'-6.945297999999999'
p3456
tp3457
I0
s(S'106.80013959999997'
p3458
S'-6.4279175'
p3459
tp3460
I2
s(S'107.0391798'
p3461
S'-6.2791748'
p3462
tp3463
I0
s(S'110.4381254'
p3464
S'-7.0051453'
p3465
tp3466
I2
s(S'106.67260710000005'
p3467
S'-6.2715643'
p3468
tp3469
I0
s(S'106.75599526989754'
p3470
S'-6.262133944896631'
p3471
tp3472
I0
s(S'107.908699'
p3473
S'-7.227906'
p3474
tp3475
I2
s(S'107.78138719999993'
p3476
S'-6.9370992'
p3477
tp3478
I0
s(S'107.49197670000001'
p3479
S'-6.865221399999999'
p3480
tp3481
I2
s(S'110.3728635'
p3482
S'-7.7358827'
p3483
tp3484
I0
s(S'106.82540341904905'
p3485
S'-6.58892022909075'
p3486
tp3487
I0
s(S'107.1484521'
p3488
S'-6.2474466'
p3489
tp3490
I2
s(S'106.74991030000001'
p3491
S'-6.3500828'
p3492
tp3493
I2
s(S'112.78969660000007'
p3494
S'-7.337438100000001'
p3495
tp3496
I0
s(S'112.7169758'
p3497
S'-7.9595973'
p3498
tp3499
I0
s(S'107.68258309999999'
p3500
S'-6.9203751'
p3501
tp3502
I2
s(S'106.7205154'
p3503
S'-6.1721148'
p3504
tp3505
I2
s(S'106.9985479'
p3506
S'-6.2359122'
p3507
tp3508
I2
s(S'106.7087216'
p3509
S'-6.259384'
p3510
tp3511
I0
s(S'106.8680538'
p3512
S'-6.1827259'
p3513
tp3514
I2
s(S'106.80811110000002'
p3515
S'-6.6381266'
p3516
tp3517
I0
s(S'115.151363'
p3518
S'-8.6292114'
p3519
tp3520
I0
s(S'106.85041028576'
p3521
S'-6.2571220823468'
p3522
tp3523
I0
s(S'106.8384873'
p3524
S'-6.4394448'
p3525
tp3526
I0
s(S'115.26329800000008'
p3527
S'-8.519268'
p3528
tp3529
I0
s(S'107.68272000000002'
p3530
S'-6.926939699999999'
p3531
tp3532
I2
s(S'106.665599'
p3533
S'-6.320137'
p3534
tp3535
I0
s(S'107.037594'
p3536
S'-6.445862'
p3537
tp3538
I2
s(S'106.71129329999997'
p3539
S'-6.2835218'
p3540
tp3541
I2
s(S'116.9263671'
p3542
S'-1.2095489'
p3543
tp3544
I2
s(S'104.7754307'
p3545
S'-2.9760735'
p3546
tp3547
I2
s(S'106.8105998'
p3548
S'-6.2614927'
p3549
tp3550
I2
s(S'112.7623542'
p3551
S'-7.293764400000001'
p3552
tp3553
I0
s(S'106.84168942192'
p3554
S'-6.2240001610136'
p3555
tp3556
I0
s(S'106.8974964'
p3557
S'-6.1561984'
p3558
tp3559
I2
s(S'107.33757909999997'
p3560
S'-6.3227303'
p3561
tp3562
I2
s(S'106.63023458564453'
p3563
S'-6.267707937747347'
p3564
tp3565
I0
s(S'110.43153919999997'
p3566
S'-7.704901899999999'
p3567
tp3568
I2
s(S'112.58856620000006'
p3569
S'-7.938809199999999'
p3570
tp3571
I0
s(S'112.64901750000001'
p3572
S'-7.458501199999999'
p3573
tp3574
I0
s(S'106.86790100000007'
p3575
S'-6.235179'
p3576
tp3577
I0
s(S'112.6735255'
p3578
S'-8.043572'
p3579
tp3580
I0
s(S'106.896482'
p3581
S'-6.1749668'
p3582
tp3583
I0
s(S'112.59475525822756'
p3584
S'-7.344657740672174'
p3585
tp3586
I0
s(S'106.8237374'
p3587
S'-6.5708377'
p3588
tp3589
I2
s(S'106.84559899999999'
p3590
S'-6.2087634'
p3591
tp3592
I2
s(S'106.9177827'
p3593
S'-6.3764893'
p3594
tp3595
I0
s(S'109.3500658'
p3596
S'-0.0803776'
p3597
tp3598
I0
s(S'106.80299250000007'
p3599
S'-6.2668917'
p3600
tp3601
I0
s(S'112.7683422'
p3602
S'-7.3432655'
p3603
tp3604
I2
s(S'106.6247095'
p3605
S'-6.1892359'
p3606
tp3607
I2
s(S'106.59978610000007'
p3608
S'-6.270971800000001'
p3609
tp3610
I0
s(S'107.68456979999996'
p3611
S'-6.924957999999999'
p3612
tp3613
I0
s(S'106.79719'
p3614
S'-6.2922975'
p3615
tp3616
I0
s(S'115.1296249'
p3617
S'-8.5852167'
p3618
tp3619
I0
s(S'106.98354100000006'
p3620
S'-6.150938'
p3621
tp3622
I2
s(S'110.3434651'
p3623
S'-7.800917699999999'
p3624
tp3625
I0
s(S'106.80285600000002'
p3626
S'-6.277826399999999'
p3627
tp3628
I0
s(S'106.81313399999999'
p3629
S'-6.311261399999999'
p3630
tp3631
I0
s(S'107.48228289999997'
p3632
S'-6.8604017'
p3633
tp3634
I0
s(S'106.75810124130862'
p3635
S'-6.209008281065112'
p3636
tp3637
I0
s(S'115.1264747'
p3638
S'-8.537582'
p3639
tp3640
I2
s(S'106.83258720000003'
p3641
S'-6.194031'
p3642
tp3643
I0
s(S'106.71127230000002'
p3644
S'-6.2690208'
p3645
tp3646
I0
s(S'107.56974709999997'
p3647
S'-6.861529099999999'
p3648
tp3649
I0
s(S'106.8620891'
p3650
S'-6.1369372'
p3651
tp3652
I0
s(S'106.9447146'
p3653
S'-6.3846283'
p3654
tp3655
I2
s(S'106.98360690000004'
p3656
S'-6.150703399999999'
p3657
tp3658
I0
s(S'106.78188610000007'
p3659
S'-6.2759588'
p3660
tp3661
I0
s(S'112.6431956'
p3662
S'-8.0192477'
p3663
tp3664
I0
s(S'106.52305419999993'
p3665
S'-6.2167736'
p3666
tp3667
I0
s(S'106.9181532'
p3668
S'-6.158079499999999'
p3669
tp3670
I2
s(S'106.82186074340825'
p3671
S'-6.401567786205099'
p3672
tp3673
I0
s(S'106.7735885'
p3674
S'-6.4877074'
p3675
tp3676
I2
s(S'110.30109379999999'
p3677
S'-7.7735423'
p3678
tp3679
I2
s(S'106.44647659999998'
p3680
S'-6.2038629'
p3681
tp3682
I0
s(S'106.6395043'
p3683
S'-6.2920229'
p3684
tp3685
I0
s(S'106.81608681163948'
p3686
S'-6.385047000971575'
p3687
tp3688
I2
s(S'106.80891099999997'
p3689
S'-6.4341003'
p3690
tp3691
I0
s(S'106.75617766011055'
p3692
S'-6.26203796150881'
p3693
tp3694
I0
s(S'106.68812679999996'
p3695
S'-6.178169599999999'
p3696
tp3697
I0
s(S'106.7381284'
p3698
S'-6.3366917'
p3699
tp3700
I2
s(S'107.68984369999998'
p3701
S'-6.9161723'
p3702
tp3703
I0
s(S'110.82432719999997'
p3704
S'-7.575488699999999'
p3705
tp3706
I2
s(S'106.74352390086369'
p3707
S'-6.351527673335354'
p3708
tp3709
I0
s(S'106.75603818524178'
p3710
S'-6.262048626330551'
p3711
tp3712
I0
s(S'107.0421324'
p3713
S'-6.2611984'
p3714
tp3715
I2
s(S'106.7557792'
p3716
S'-6.190464400000001'
p3717
tp3718
I0
s(S'106.84048200000007'
p3719
S'-6.2248984'
p3720
tp3721
I0
s(S'107.67746750000003'
p3722
S'-6.9152087'
p3723
tp3724
I0
s(S'106.89281088098'
p3725
S'-6.1624017018803'
p3726
tp3727
I0
s(S'106.68811646137692'
p3728
S'-6.315290149130589'
p3729
tp3730
I0
s(S'112.44013289999998'
p3731
S'-7.4704747'
p3732
tp3733
I2
s(S'106.81634630573'
p3734
S'-6.196034245825'
p3735
tp3736
I0
s(S'107.52590780000003'
p3737
S'-7.025201999999999'
p3738
tp3739
I2
s(S'106.854516'
p3740
S'-6.147562'
p3741
tp3742
I0
s(S'106.90006859999994'
p3743
S'-6.1486544'
p3744
tp3745
I0
s(S'107.6068213'
p3746
S'-6.874055'
p3747
tp3748
I2
s(S'107.03622719999998'
p3749
S'-6.123654999999999'
p3750
tp3751
I2
s(S'119.4327314'
p3752
S'-5.147665099999999'
p3753
tp3754
I0
s(S'112.60980080000002'
p3755
S'-7.966238599999999'
p3756
tp3757
I0
s(S'112.79912149999996'
p3758
S'-7.262768200000001'
p3759
tp3760
I0
s(S'106.84284807246092'
p3761
S'-6.406188227909082'
p3762
tp3763
I0
s(S'115.12469179999994'
p3764
S'-8.5375566'
p3765
tp3766
I2
s(S'106.8783167'
p3767
S'-6.2295694'
p3768
tp3769
I2
s(S'106.68794479999997'
p3770
S'-6.315183511823841'
p3771
tp3772
I0
s(S'101.3998518'
p3773
S'0.4691089'
p3774
tp3775
I2
s(S'107.682207'
p3776
S'-6.9267452'
p3777
tp3778
I0
s(S'106.947569'
p3779
S'-6.2087273'
p3780
tp3781
I0
s(S'107.54163949999997'
p3782
S'-6.8510071'
p3783
tp3784
I2
s(S'106.95061750000002'
p3785
S'-6.261676899999999'
p3786
tp3787
I0
s(S'103.61312029999999'
p3788
S'-1.6101229'
p3789
tp3790
I2
s(S'106.9823142'
p3791
S'-6.1821232'
p3792
tp3793
I0
s(S'112.53149910000002'
p3794
S'-7.886758899999999'
p3795
tp3796
I0
s(S'107.68220700000006'
p3797
S'-6.9267452'
p3798
tp3799
I0
s(S'106.94037445498657'
p3800
S'-6.6875547955673085'
p3801
tp3802
I2
s(S'108.5415427'
p3803
S'-6.7109937'
p3804
tp3805
I0
s(S'106.81293827150262'
p3806
S'-6.384563780690885'
p3807
tp3808
I2
s(S'106.79246599999999'
p3809
S'-6.394319899999999'
p3810
tp3811
I0
s(S'106.8473377'
p3812
S'-6.2318597'
p3813
tp3814
I0
s(S'106.82078750000005'
p3815
S'-6.434914'
p3816
tp3817
I2
s(S'112.6502698'
p3818
S'-7.9349806'
p3819
tp3820
I2
s(S'107.03444230000002'
p3821
S'-6.198839299999999'
p3822
tp3823
I0
s(S'106.82816230000003'
p3824
S'-6.587388199999999'
p3825
tp3826
I0
s(S'110.8135688'
p3827
S'-7.5429807'
p3828
tp3829
I2
s(S'106.834649'
p3830
S'-6.364056'
p3831
tp3832
I0
s(S'106.70095000000003'
p3833
S'-6.3070488'
p3834
tp3835
I0
s(S'106.9469716'
p3836
S'-6.2082899'
p3837
tp3838
I0
s(S'112.65026979999993'
p3839
S'-7.934980599999999'
p3840
tp3841
I0
s(S'106.9535691'
p3842
S'-6.1773344'
p3843
tp3844
I2
s(S'106.99733949999995'
p3845
S'-6.294995999999999'
p3846
tp3847
I2
s(S'106.77763365770261'
p3848
S'-6.406720696088402'
p3849
tp3850
I0
s(S'106.75730330740976'
p3851
S'-6.342307415359653'
p3852
tp3853
I0
s(S'107.2922096'
p3854
S'-6.3234143'
p3855
tp3856
I0
s(S'106.8165093'
p3857
S'-6.4068811'
p3858
tp3859
I2
s(S'107.74197079999999'
p3860
S'-6.9316588'
p3861
tp3862
I0
s(S'112.80459280000002'
p3863
S'-7.339163399999999'
p3864
tp3865
I2
s(S'107.3375791'
p3866
S'-6.3227303'
p3867
tp3868
I2
s(S'106.7765443'
p3869
S'-6.2443916'
p3870
tp3871
I2
s(S'112.80026250000003'
p3872
S'-7.2649835'
p3873
tp3874
I0
s(S'106.9139988'
p3875
S'-6.1696904'
p3876
tp3877
I2
s(S'106.9875898'
p3878
S'-6.2072773'
p3879
tp3880
I2
s(S'106.789345'
p3881
S'-6.175422'
p3882
tp3883
I0
s(S'112.78139799999997'
p3884
S'-7.313717599999999'
p3885
tp3886
I0
s(S'106.929957'
p3887
S'-6.328551'
p3888
tp3889
I2
s(S'106.73931330000005'
p3890
S'-6.1083653'
p3891
tp3892
I0
s(S'107.56308569999999'
p3893
S'-6.9434115'
p3894
tp3895
I0
s(S'115.0457'
p3896
S'-8.491588'
p3897
tp3898
I2
s(S'112.66556630000002'
p3899
S'-7.315094299999999'
p3900
tp3901
I0
s(S'106.71322659999998'
p3902
S'-6.1799753'
p3903
tp3904
I0
s(S'104.0304535'
p3905
S'1.0456264'
p3906
tp3907
I2
s(S'106.90044720000003'
p3908
S'-6.3272512'
p3909
tp3910
I0
s(S'106.9565206'
p3911
S'-6.3586372'
p3912
tp3913
I2
s(S'106.7108551'
p3914
S'-6.1431075'
p3915
tp3916
I0
s(S'106.8325872'
p3917
S'-6.3115948'
p3918
tp3919
I0
s(S'107.62431930000002'
p3920
S'-6.938624099999999'
p3921
tp3922
I0
s(S'112.64482659999999'
p3923
S'-8.032305899999999'
p3924
tp3925
I2
s(S'107.6511279'
p3926
S'-6.9523899'
p3927
tp3928
I2
s(S'107.6288475'
p3929
S'-6.8920737'
p3930
tp3931
I2
s(S'109.47350660000006'
p3932
S'-0.3533938'
p3933
tp3934
I0
s(S'106.75318100000004'
p3935
S'-6.123667999999999'
p3936
tp3937
I0
s(S'106.83006869999997'
p3938
S'-6.3888772'
p3939
tp3940
I2
s(S'107.71378460000005'
p3941
S'-6.9220653'
p3942
tp3943
I0
s(S'106.886009'
p3944
S'-6.213997'
p3945
tp3946
I2
s(S'106.609971'
p3947
S'-6.2269156'
p3948
tp3949
I0
s(S'106.845599'
p3950
S'-6.2087634'
p3951
tp3952
I2
s(S'112.76884159999997'
p3953
S'-7.2202663'
p3954
tp3955
I0
s(S'106.78188980000004'
p3956
S'-6.183709599999999'
p3957
tp3958
I2
s(S'106.79763509999998'
p3959
S'-6.2481867'
p3960
tp3961
I0
s(S'115.13258969999993'
p3962
S'-8.638112'
p3963
tp3964
I0
s(S'107.6490252'
p3965
S'-6.9430969'
p3966
tp3967
I0
s(S'106.83246780000002'
p3968
S'-6.2226997'
p3969
tp3970
I0
s(S'106.89346460000002'
p3971
S'-6.395046499999999'
p3972
tp3973
I2
s(S'115.263298'
p3974
S'-8.519268'
p3975
tp3976
I0
s(S'106.74598549999996'
p3977
S'-6.268623499999999'
p3978
tp3979
I0
s(S'106.7096796'
p3980
S'-6.3316386'
p3981
tp3982
I0
s(S'106.809228099999'
p3983
S'-6.704426'
p3984
tp3985
I0
s(S'106.9948945'
p3986
S'-6.1199004'
p3987
tp3988
I2
s(S'106.81386409364018'
p3989
S'-6.320299105046534'
p3990
tp3991
I0
s(S'106.67940520000002'
p3992
S'-6.3055599'
p3993
tp3994
I0
s(S'106.4209241'
p3995
S'-6.2714957'
p3996
tp3997
I0
s(S'106.9755726'
p3998
S'-6.2382699'
p3999
tp4000
I2
s(S'106.9604246'
p4001
S'-6.2279527'
p4002
tp4003
I2
s(S'106.68808409999997'
p4004
S'-6.395769'
p4005
tp4006
I0
s(S'106.88600900000006'
p4007
S'-6.213997'
p4008
tp4009
I2
s(S'106.82932276495967'
p4010
S'-6.376373935547075'
p4011
tp4012
I0
s(S'106.87619810000001'
p4013
S'-6.224450699999999'
p4014
tp4015
I0
s(S'106.79552639999997'
p4016
S'-6.3373947'
p4017
tp4018
I0
s(S'106.96338519999995'
p4019
S'-6.3605788'
p4020
tp4021
I0
s(S'106.80308919999993'
p4022
S'-6.374008'
p4023
tp4024
I0
s(S'106.84878586295167'
p4025
S'-6.2762378063434685'
p4026
tp4027
I0
s(S'107.00096209999992'
p4028
S'-6.1783774'
p4029
tp4030
I0
s(S'112.78677008962'
p4031
S'-7.2879789193354'
p4032
tp4033
I0
s(S'106.7229756'
p4034
S'-6.1364456'
p4035
tp4036
I0
s(S'107.3202333'
p4037
S'-6.3054002'
p4038
tp4039
I2
s(S'107.0657549'
p4040
S'-6.1787633'
p4041
tp4042
I2
s(S'106.8546726'
p4043
S'-6.3703688'
p4044
tp4045
I2
s(S'106.81632284603279'
p4046
S'-6.385836009441484'
p4047
tp4048
I0
s(S'106.9954744'
p4049
S'-6.1766294'
p4050
tp4051
I0
s(S'106.70981219999999'
p4052
S'-6.1229626'
p4053
tp4054
I0
s(S'106.90502019999997'
p4055
S'-6.261148100000001'
p4056
tp4057
I2
s(S'106.8018708'
p4058
S'-6.3479447'
p4059
tp4060
I0
s(S'106.69692850000001'
p4061
S'-6.3211821'
p4062
tp4063
I2
s(S'107.6762506'
p4064
S'-6.9437133'
p4065
tp4066
I0
s(S'106.81666302227'
p4067
S'-6.1943704177039'
p4068
tp4069
I0
s(S'106.7612017'
p4070
S'-6.5751929'
p4071
tp4072
I2
s(S'106.8092281'
p4073
S'-6.704426'
p4074
tp4075
I0
s(S'107.03434859999993'
p4076
S'-6.2158904'
p4077
tp4078
I0
s(S'107.690925'
p4079
S'-6.9080013'
p4080
tp4081
I0
s(S'107.72936068941044'
p4082
S'-6.933798975203057'
p4083
tp4084
I0
s(S'106.631889'
p4085
S'-6.178306'
p4086
tp4087
I2
s(S'106.845854'
p4088
S'-6.122101'
p4089
tp4090
I0
s(S'96.1526985'
p4091
S'4.4542745'
p4092
tp4093
I2
s(S'106.90546180000001'
p4094
S'-6.1604549'
p4095
tp4096
I0
s(S'106.68815937672116'
p4097
S'-6.3153328040471415'
p4098
tp4099
I0
s(S'106.91906570000003'
p4100
S'-6.1675771'
p4101
tp4102
I0
s(S'106.79466398227851'
p4103
S'-6.404107085604771'
p4104
tp4105
I0
s(S'98.65428569999995'
p4106
S'3.6133026'
p4107
tp4108
I0
s(S'106.95831250000003'
p4109
S'-6.4526242'
p4110
tp4111
I0
s(S'106.78027'
p4112
S'-6.283309'
p4113
tp4114
I0
s(S'107.02441709999994'
p4115
S'-6.2362538'
p4116
tp4117
I0
s(S'106.83068230000003'
p4118
S'-6.4366709'
p4119
tp4120
I0
s(S'107.6777669'
p4121
S'-6.9539456'
p4122
tp4123
I2
s(S'106.835284'
p4124
S'-6.184908699999999'
p4125
tp4126
I0
s(S'106.77504899999997'
p4127
S'-6.116995999999999'
p4128
tp4129
I0
s(S'106.59411469999998'
p4130
S'-6.1596971'
p4131
tp4132
I2
s(S'107.5413039'
p4133
S'-6.8840816'
p4134
tp4135
I2
s(S'106.87450409631'
p4136
S'-6.188320934204'
p4137
tp4138
I0
s(S'106.4399512'
p4139
S'-6.2597473'
p4140
tp4141
I0
s(S'112.5407615899353'
p4142
S'-7.508556122536766'
p4143
tp4144
I0
s(S'106.8535807'
p4145
S'-6.2367498'
p4146
tp4147
I0
s(S'106.88618480000002'
p4148
S'-6.3999131'
p4149
tp4150
I0
s(S'112.64642683859256'
p4151
S'-7.299725455345495'
p4152
tp4153
I0
s(S'98.67892929999994'
p4154
S'3.6209497'
p4155
tp4156
I0
s(S'106.76114729999995'
p4157
S'-6.6016466'
p4158
tp4159
I0
s(S'106.9704941'
p4160
S'-6.4022718'
p4161
tp4162
I2
s(S'106.8080833'
p4163
S'-6.2596634'
p4164
tp4165
I0
s(S'106.86363968051751'
p4166
S'-6.714538015013154'
p4167
tp4168
I0
s(S'110.3279026'
p4169
S'-7.8777659'
p4170
tp4171
I2
s(S'106.80728410000006'
p4172
S'-6.3843651'
p4173
tp4174
I0
s(S'106.71478690000004'
p4175
S'-6.3167016'
p4176
tp4177
I0
s(S'106.90541970000004'
p4178
S'-6.1601384'
p4179
tp4180
I0
s(S'106.79970500000002'
p4181
S'-6.537942399999999'
p4182
tp4183
I0
s(S'110.3307362'
p4184
S'-7.8228993'
p4185
tp4186
I0
s(S'107.5787383'
p4187
S'-6.9591056'
p4188
tp4189
I0
s(S'106.652709899999'
p4190
S'-6.2023936'
p4191
tp4192
I2
s(S'112.74466491401677'
p4193
S'-7.26896123661498'
p4194
tp4195
I0
s(S'106.8115363'
p4196
S'-6.3199193'
p4197
tp4198
I0
s(S'106.8109534368316'
p4199
S'-6.384105301804992'
p4200
tp4201
I2
s(S'106.75988970000003'
p4202
S'-6.1598216'
p4203
tp4204
I0
s(S'119.4327314'
p4205
S'-5.1476651'
p4206
tp4207
I2
s(S'106.75607037174996'
p4208
S'-6.262176604174435'
p4209
tp4210
I0
s(S'106.8655836'
p4211
S'-6.1782946'
p4212
tp4213
I0
s(S'106.11692990000006'
p4214
S'-6.3270611'
p4215
tp4216
I2
s(S'106.798408'
p4217
S'-6.292053'
p4218
tp4219
I0
s(S'110.37213840000004'
p4220
S'-7.718918400000001'
p4221
tp4222
I0
s(S'106.76133549999997'
p4223
S'-6.6106294'
p4224
tp4225
I0
s(S'106.7259241'
p4226
S'-6.3350977'
p4227
tp4228
I2
s(S'106.879792'
p4229
S'-6.5766141'
p4230
tp4231
I2
s(S'106.917539'
p4232
S'-6.153735'
p4233
tp4234
I0
s(S'106.69985079999992'
p4235
S'-6.1343948'
p4236
tp4237
I0
s(S'106.743381'
p4238
S'-6.4743847'
p4239
tp4240
I0
s(S'107.71921040000007'
p4241
S'-6.9163257'
p4242
tp4243
I2
s(S'106.7669783'
p4244
S'-6.6020639'
p4245
tp4246
I0
s(S'106.91159300000004'
p4247
S'-6.285667'
p4248
tp4249
I0
s(S'112.6137233'
p4250
S'-8.0037374'
p4251
tp4252
I2
s(S'106.97411799999998'
p4253
S'-6.168966999999999'
p4254
tp4255
I0
s(S'106.8384873'
p4256
S'-6.270482899999999'
p4257
tp4258
I0
s(S'106.7129708'
p4259
S'-6.177914599999999'
p4260
tp4261
I0
s(S'106.89297090000002'
p4262
S'-6.1587577'
p4263
tp4264
I2
s(S'115.16666669999995'
p4265
S'-8.816666699999999'
p4266
tp4267
I2
s(S'106.81736777269'
p4268
S'-6.1972602824091'
p4269
tp4270
I0
s(S'112.77695549073792'
p4271
S'-7.307978516231846'
p4272
tp4273
I0
s(S'106.79995129999998'
p4274
S'-6.1747751'
p4275
tp4276
I0
s(S'106.728835'
p4277
S'-6.1520201'
p4278
tp4279
I2
s(S'106.6201966'
p4280
S'-6.2434696'
p4281
tp4282
I0
s(S'106.8694651'
p4283
S'-6.2732982'
p4284
tp4285
I2
s(S'107.67924689999995'
p4286
S'-6.8985527'
p4287
tp4288
I0
s(S'107.113007'
p4289
S'-6.4429133'
p4290
tp4291
I2
s(S'106.83216479999999'
p4292
S'-6.2163528'
p4293
tp4294
I0
s(S'106.773595'
p4295
S'-6.1959421'
p4296
tp4297
I0
s(S'106.75781649999999'
p4298
S'-6.417576899999999'
p4299
tp4300
I0
s(S'112.631675'
p4301
S'-7.9819761'
p4302
tp4303
I0
s(S'115.1592718'
p4304
S'-8.7906945'
p4305
tp4306
I2
s(S'106.7328076'
p4307
S'-6.3436306'
p4308
tp4309
I0
s(S'106.84487549999994'
p4310
S'-6.2553486'
p4311
tp4312
I0
s(S'106.6974924'
p4313
S'-6.2845749'
p4314
tp4315
I0
s(S'107.67987270000003'
p4316
S'-6.917428800000001'
p4317
tp4318
I0
s(S'107.6227961'
p4319
S'-6.8162073'
p4320
tp4321
I2
s(S'109.3009955'
p4322
S'-0.0132044'
p4323
tp4324
I0
s(S'107.0474795789429'
p4325
S'-6.73893329601811'
p4326
tp4327
I2
s(S'110.4202505'
p4328
S'-7.0720442'
p4329
tp4330
I2
s(S'106.86338268780514'
p4331
S'-6.3088560103980935'
p4332
tp4333
I0
s(S'106.7006917'
p4334
S'-6.1453048'
p4335
tp4336
I0
s(S'106.79024745075685'
p4337
S'-6.389672009702152'
p4338
tp4339
I0
s(S'106.7130367'
p4340
S'-6.1341773'
p4341
tp4342
I0
s(S'107.4919767'
p4343
S'-6.8652214'
p4344
tp4345
I2
s(S'106.8714848'
p4346
S'-6.1320555'
p4347
tp4348
I0
s(S'106.95892509999999'
p4349
S'-6.3748415'
p4350
tp4351
I0
s(S'106.80954558413089'
p4352
S'-6.525216089523661'
p4353
tp4354
I0
s(S'106.8266873'
p4355
S'-6.2299792'
p4356
tp4357
I0
s(S'106.8069405'
p4358
S'-6.6447387'
p4359
tp4360
I2
s(S'106.86225560000003'
p4361
S'-6.5832752'
p4362
tp4363
I2
s(S'110.46493829999997'
p4364
S'-7.0623817'
p4365
tp4366
I2
s(S'106.7246576'
p4367
S'-6.1775283'
p4368
tp4369
I2
s(S'106.9506175'
p4370
S'-6.2616769'
p4371
tp4372
I0
s(S'112.735104'
p4373
S'-7.4500173'
p4374
tp4375
I0
s(S'106.81354222855839'
p4376
S'-6.320384414050403'
p4377
tp4378
I0
s(S'106.75677999999994'
p4379
S'-6.1324614'
p4380
tp4381
I0
s(S'106.80156729999999'
p4382
S'-6.377758'
p4383
tp4384
I2
s(S'106.7500025'
p4385
S'-6.4424217'
p4386
tp4387
I2
s(S'106.90634909999994'
p4388
S'-6.609096999999999'
p4389
tp4390
I0
s(S'106.71512680000001'
p4391
S'-6.2728817'
p4392
tp4393
I0
s(S'107.55307620000008'
p4394
S'-6.8671418'
p4395
tp4396
I0
s(S'106.67923999999994'
p4397
S'-6.1376917'
p4398
tp4399
I2
s(S'106.8172880476684'
p4400
S'-6.592638444416942'
p4401
tp4402
I0
s(S'112.7494759'
p4403
S'-7.325722'
p4404
tp4405
I0
s(S'107.47838230000002'
p4406
S'-6.8436457'
p4407
tp4408
I2
s(S'106.9032029'
p4409
S'-6.3762645'
p4410
tp4411
I0
s(S'115.2608045'
p4412
S'-8.5089214'
p4413
tp4414
I0
s(S'106.73053950000008'
p4415
S'-6.207522'
p4416
tp4417
I0
s(S'106.9165659'
p4418
S'-6.1601355'
p4419
tp4420
I0
s(S'106.75576580000006'
p4421
S'-6.192118199999999'
p4422
tp4423
I0
s(S'106.77062799999999'
p4424
S'-6.155703'
p4425
tp4426
I2
s(S'106.74005399999999'
p4427
S'-6.107772'
p4428
tp4429
I0
s(S'112.5845996'
p4430
S'-7.170096'
p4431
tp4432
I2
s(S'98.67222270000002'
p4433
S'3.5951956'
p4434
tp4435
I2
s(S'106.70830009999997'
p4436
S'-6.179987499999999'
p4437
tp4438
I0
s(S'106.81856600000003'
p4439
S'-6.1441421'
p4440
tp4441
I2
s(S'106.65541280000002'
p4442
S'-6.2428408'
p4443
tp4444
I0
s(S'107.63878460000001'
p4445
S'-6.9110744'
p4446
tp4447
I0
s(S'106.6876973'
p4448
S'-6.2636889'
p4449
tp4450
I0
s(S'106.77654430000007'
p4451
S'-6.2443916'
p4452
tp4453
I2
s(S'106.8516965'
p4454
S'-6.3403424'
p4455
tp4456
I2
s(S'112.59688030000007'
p4457
S'-7.978781399999999'
p4458
tp4459
I0
s(S'106.79463839685059'
p4460
S'-6.336504452021824'
p4461
tp4462
I0
s(S'106.78367579999997'
p4463
S'-6.1795201'
p4464
tp4465
I0
s(S'106.7424183'
p4466
S'-6.1867463'
p4467
tp4468
I0
s(S'112.7992377'
p4469
S'-7.2604914'
p4470
tp4471
I0
s(S'106.92418599999996'
p4472
S'-6.383896000000001'
p4473
tp4474
I0
s(S'112.70154950000006'
p4475
S'-7.449771799999999'
p4476
tp4477
I2
s(S'106.8547133'
p4478
S'-6.2328959'
p4479
tp4480
I2
s(S'115.26301420000004'
p4481
S'-8.694737'
p4482
tp4483
I2
s(S'107.61008949999996'
p4484
S'-6.882958700000001'
p4485
tp4486
I0
s(S'106.7158697'
p4487
S'-6.1297816'
p4488
tp4489
I0
s(S'112.75096559999997'
p4490
S'-7.458015899999999'
p4491
tp4492
I0
s(S'98.66929979999998'
p4493
S'3.5915405'
p4494
tp4495
I2
s(S'106.7382072'
p4496
S'-6.1970854'
p4497
tp4498
I0
s(S'106.879792'
p4499
S'-6.3560872'
p4500
tp4501
I0
s(S'112.67971290000003'
p4502
S'-7.3104483'
p4503
tp4504
I0
s(S'106.7971218'
p4505
S'-6.2605896'
p4506
tp4507
I0
s(S'115.21666700000003'
p4508
S'-8.65'
p4509
tp4510
I2
s(S'106.83258720000003'
p4511
S'-6.3115948'
p4512
tp4513
I0
s(S'112.23840169999994'
p4514
S'-7.5360639'
p4515
tp4516
I2
s(S'106.95356909999998'
p4517
S'-6.3101381'
p4518
tp4519
I0
s(S'106.79719'
p4520
S'-6.1900714'
p4521
tp4522
I0
s(S'112.6079459'
p4523
S'-7.3445521'
p4524
tp4525
I0
s(S'112.53084000000001'
p4526
S'-7.8971642'
p4527
tp4528
I0
s(S'106.70967960000007'
p4529
S'-6.3316386'
p4530
tp4531
I0
s(S'110.39641789999996'
p4532
S'-7.7173988'
p4533
tp4534
I2
s(S'106.74896339999998'
p4535
S'-6.1259711'
p4536
tp4537
I0
s(S'106.68811646137692'
p4538
S'-6.315396786415378'
p4539
tp4540
I0
s(S'107.5806628'
p4541
S'-6.8721659'
p4542
tp4543
I0
s(S'106.6510231'
p4544
S'-6.2540857'
p4545
tp4546
I0
s(S'107.043315'
p4547
S'-6.7367939'
p4548
tp4549
I0
s(S'106.84733770000003'
p4550
S'-6.1603721'
p4551
tp4552
I0
s(S'107.58750090000001'
p4553
S'-6.8660066'
p4554
tp4555
I0
s(S'106.63188890000004'
p4556
S'-6.1783056'
p4557
tp4558
I2
s(S'112.617608'
p4559
S'-7.1822915'
p4560
tp4561
I0
s(S'107.6289307'
p4562
S'-6.9390744'
p4563
tp4564
I0
s(S'106.99695229999998'
p4565
S'-6.2490276'
p4566
tp4567
I2
s(S'106.7733382'
p4568
S'-6.2814274'
p4569
tp4570
I0
s(S'106.8119382'
p4571
S'-6.2023616'
p4572
tp4573
I2
s(S'106.6554172'
p4574
S'-6.2428386'
p4575
tp4576
I0
s(S'106.4317533'
p4577
S'-6.2734443'
p4578
tp4579
I2
s(S'106.75590590294'
p4580
S'-6.191846836824'
p4581
tp4582
I0
s(S'106.8283'
p4583
S'-6.175'
p4584
tp4585
I0
s(S'106.83016889999999'
p4586
S'-6.473929099999999'
p4587
tp4588
I0
s(S'106.7025759'
p4589
S'-6.1220532'
p4590
tp4591
I0
s(S'106.7999513'
p4592
S'-6.1747751'
p4593
tp4594
I0
s(S'106.86993918518067'
p4595
S'-6.369425357803587'
p4596
tp4597
I0
s(S'106.7839175'
p4598
S'-6.1713515'
p4599
tp4600
I0
s(S'106.9565206'
p4601
S'-6.1899947'
p4602
tp4603
I2
s(S'112.6049661'
p4604
S'-7.9808144'
p4605
tp4606
I2
s(S'106.9901456'
p4607
S'-6.1825863'
p4608
tp4609
I0
s(S'112.631315'
p4610
S'-8.0580966'
p4611
tp4612
I0
s(S'112.81353039999999'
p4613
S'-7.305958'
p4614
tp4615
I2
s(S'106.78776500000004'
p4616
S'-6.166864'
p4617
tp4618
I0
s(S'112.5319101'
p4619
S'-7.894246099999998'
p4620
tp4621
I0
s(S'115.13851920000002'
p4622
S'-8.6478175'
p4623
tp4624
I0
s(S'106.75590039999997'
p4625
S'-6.4268374'
p4626
tp4627
I0
s(S'112.698066'
p4628
S'-7.310969'
p4629
tp4630
I0
s(S'106.9656813877441'
p4631
S'-6.695692657870706'
p4632
tp4633
I0
s(S'106.732821'
p4634
S'-6.129304'
p4635
tp4636
I0
s(S'106.82289149999997'
p4637
S'-6.575169499999999'
p4638
tp4639
I0
s(S'106.8679899'
p4640
S'-6.182670799999999'
p4641
tp4642
I0
s(S'114.81031810000002'
p4643
S'-3.4572422'
p4644
tp4645
I0
s(S'106.89454560000001'
p4646
S'-6.712397999999999'
p4647
tp4648
I2
s(S'106.81577776931158'
p4649
S'-6.329670099941253'
p4650
tp4651
I0
s(S'106.77458483544319'
p4652
S'-6.249411165532559'
p4653
tp4654
I0
s(S'106.94799734783'
p4655
S'-6.2052868147257'
p4656
tp4657
I2
s(S'106.82018399999993'
p4658
S'-6.273765999999999'
p4659
tp4660
I0
s(S'106.8679899'
p4661
S'-6.1826708'
p4662
tp4663
I0
s(S'110.4321671'
p4664
S'-7.7670239'
p4665
tp4666
I0
s(S'106.7794935'
p4667
S'-6.2570768'
p4668
tp4669
I2
s(S'106.88970810000001'
p4670
S'-6.5845889'
p4671
tp4672
I0
s(S'107.5830623'
p4673
S'-6.8545984'
p4674
tp4675
I0
s(S'107.55142699999999'
p4676
S'-6.930940199999999'
p4677
tp4678
I0
s(S'106.81929000000002'
p4679
S'-6.6574586'
p4680
tp4681
I0
s(S'106.7016426'
p4682
S'-6.2857431'
p4683
tp4684
I0
s(S'106.73890440000002'
p4685
S'-6.1099257'
p4686
tp4687
I0
s(S'119.5310713'
p4688
S'-5.0792625'
p4689
tp4690
I2
s(S'106.7352584'
p4691
S'-6.1486651'
p4692
tp4693
I2
s(S'106.99721720000002'
p4694
S'-6.18004'
p4695
tp4696
I0
s(S'112.56920820000005'
p4697
S'-7.9217539'
p4698
tp4699
I0
s(S'106.79599000000007'
p4700
S'-6.562913'
p4701
tp4702
I0
s(S'101.40251969999997'
p4703
S'0.455495'
p4704
tp4705
I0
s(S'107.63632959999995'
p4706
S'-6.919484199999999'
p4707
tp4708
I0
s(S'106.702825'
p4709
S'-6.1318356'
p4710
tp4711
I2
s(S'106.8705334'
p4712
S'-6.1390755'
p4713
tp4714
I0
s(S'112.53391590000001'
p4715
S'-7.8960205'
p4716
tp4717
I0
s(S'106.9473988'
p4718
S'-6.2083823'
p4719
tp4720
I0
s(S'106.7647475'
p4721
S'-6.4085961'
p4722
tp4723
I0
s(S'106.79202699999996'
p4724
S'-6.157118'
p4725
tp4726
I0
s(S'112.67012185711678'
p4727
S'-7.444399848016471'
p4728
tp4729
I0
s(S'112.65688969999997'
p4730
S'-7.9266678'
p4731
tp4732
I0
s(S'106.77919020000002'
p4733
S'-6.2574396'
p4734
tp4735
I0
s(S'112.62258320000001'
p4736
S'-7.9416457'
p4737
tp4738
I0
s(S'106.84154990000002'
p4739
S'-6.1620414'
p4740
tp4741
I2
s(S'107.0244171'
p4742
S'-6.2362538'
p4743
tp4744
I2
s(S'106.81300940541837'
p4745
S'-6.374061766709002'
p4746
tp4747
I0
s(S'106.75588600000003'
p4748
S'-6.192124'
p4749
tp4750
I0
s(S'106.7271144'
p4751
S'-6.181328100000001'
p4752
tp4753
I0
s(S'106.84268048360593'
p4754
S'-6.362846358010186'
p4755
tp4756
I0
s(S'107.14254419999997'
p4757
S'-6.8168237'
p4758
tp4759
I2
s(S'106.63184019999994'
p4760
S'-6.2367493'
p4761
tp4762
I0
s(S'106.68733461799934'
p4763
S'-6.3147450480237275'
p4764
tp4765
I0
s(S'107.00079870000002'
p4766
S'-6.2064052'
p4767
tp4768
I2
s(S'106.95061750000002'
p4769
S'-6.2770072'
p4770
tp4771
I0
s(S'107.70524339999997'
p4772
S'-6.936190099999999'
p4773
tp4774
I0
s(S'107.6478182'
p4775
S'-7.0037585'
p4776
tp4777
I2
s(S'106.7824429'
p4778
S'-6.1267415'
p4779
tp4780
I2
s(S'106.81678490118861'
p4781
S'-6.38287088321801'
p4782
tp4783
I0
s(S'106.82373740000003'
p4784
S'-6.334917'
p4785
tp4786
I0
s(S'106.74115589999997'
p4787
S'-6.347891499999999'
p4788
tp4789
I0
s(S'106.73887259999992'
p4790
S'-6.220113899999999'
p4791
tp4792
I0
s(S'107.63943319999998'
p4793
S'-6.9015937'
p4794
tp4795
I2
s(S'112.79353730000003'
p4796
S'-7.266394399999999'
p4797
tp4798
I0
s(S'106.81147287838'
p4799
S'-6.2594194247825'
p4800
tp4801
I0
s(S'106.9683577'
p4802
S'-6.2573048'
p4803
tp4804
I0
s(S'106.61823189999996'
p4805
S'-6.2816179'
p4806
tp4807
I0
s(S'112.74557879999998'
p4808
S'-7.2642396'
p4809
tp4810
I2
s(S'106.8325872'
p4811
S'-6.1991376'
p4812
tp4813
I2
s(S'106.87326540000004'
p4814
S'-6.1460384'
p4815
tp4816
I0
s(S'101.40215579999995'
p4817
S'0.4571511'
p4818
tp4819
I0
s(S'106.75152589999993'
p4820
S'-6.4295169'
p4821
tp4822
I0
s(S'106.64724130000002'
p4823
S'-6.1671725'
p4824
tp4825
I0
s(S'106.68811646137692'
p4826
S'-6.315247494210526'
p4827
tp4828
I0
s(S'106.523186'
p4829
S'-6.2356506'
p4830
tp4831
I0
s(S'112.59006709999994'
p4832
S'-7.401005499999999'
p4833
tp4834
I2
s(S'106.73820720000003'
p4835
S'-6.284000199999999'
p4836
tp4837
I2
s(S'107.616577'
p4838
S'-6.899161'
p4839
tp4840
I2
s(S'106.75619911778267'
p4841
S'-6.2619953022196695'
p4842
tp4843
I0
s(S'106.16397489999997'
p4844
S'-6.110366099999999'
p4845
tp4846
I2
s(S'106.79719'
p4847
S'-6.389574499999999'
p4848
tp4849
I2
s(S'106.833915'
p4850
S'-6.364392'
p4851
tp4852
I0
s(S'106.77949349999994'
p4853
S'-6.3031123'
p4854
tp4855
I0
s(S'107.04213240000001'
p4856
S'-6.363430399999999'
p4857
tp4858
I0
s(S'106.7111754'
p4859
S'-6.1775535'
p4860
tp4861
I0
s(S'112.64497890000007'
p4862
S'-7.288891499999999'
p4863
tp4864
I2
s(S'107.01273779999997'
p4865
S'-6.1762337'
p4866
tp4867
I0
s(S'112.80017709999993'
p4868
S'-7.263675600000001'
p4869
tp4870
I0
s(S'106.99935030000006'
p4871
S'-6.2505031'
p4872
tp4873
I0
s(S'106.9904664'
p4874
S'-6.2284397'
p4875
tp4876
I2
s(S'106.7469685'
p4877
S'-6.1940263'
p4878
tp4879
I2
s(S'106.95909489999997'
p4880
S'-6.3980009'
p4881
tp4882
I0
s(S'106.77954879999993'
p4883
S'-6.1105016'
p4884
tp4885
I0
s(S'106.9329091'
p4886
S'-6.2060792'
p4887
tp4888
I2
s(S'106.85521919999996'
p4889
S'-6.2823858'
p4890
tp4891
I0
s(S'106.7264125'
p4892
S'-6.556182'
p4893
tp4894
I2
s(S'106.816730'
p4895
S'-6.197417'
p4896
tp4897
I0
s(S'106.9506175'
p4898
S'-6.2770072'
p4899
tp4900
I0
s(S'106.7441048'
p4901
S'-6.1866784'
p4902
tp4903
I0
s(S'107.5993373'
p4904
S'-6.8912891'
p4905
tp4906
I2
s(S'110.42931499999997'
p4907
S'-6.989296299999999'
p4908
tp4909
I2
s(S'98.6834392'
p4910
S'3.6217102'
p4911
tp4912
I0
s(S'106.8089885'
p4913
S'-6.3379655'
p4914
tp4915
I0
s(S'106.8030892'
p4916
S'-6.6409658'
p4917
tp4918
I2
s(S'106.80150509999999'
p4919
S'-6.3777479'
p4920
tp4921
I0
s(S'106.79453110848999'
p4922
S'-6.336589758349791'
p4923
tp4924
I0
s(S'107.05156349999993'
p4925
S'-6.435417699999999'
p4926
tp4927
I0
s(S'106.82611870000005'
p4928
S'-6.2347192'
p4929
tp4930
I0
s(S'116.9028125'
p4931
S'-1.244228'
p4932
tp4933
I0
s(S'110.33540300000004'
p4934
S'-7.716165'
p4935
tp4936
I2
s(S'106.80879694078362'
p4937
S'-6.372451270518066'
p4938
tp4939
I0
s(S'110.3947016'
p4940
S'-7.7586898'
p4941
tp4942
I2
s(S'106.92819659999998'
p4943
S'-6.3846322'
p4944
tp4945
I0
s(S'106.81371388993534'
p4946
S'-6.320299105046534'
p4947
tp4948
I0
s(S'106.8163628'
p4949
S'-6.2213742'
p4950
tp4951
I0
s(S'106.96714670000006'
p4952
S'-6.2895721'
p4953
tp4954
I2
s(S'106.838158'
p4955
S'-6.7128814'
p4956
tp4957
I2
s(S'106.8553023'
p4958
S'-6.5683873'
p4959
tp4960
I0
s(S'107.6174119'
p4961
S'-6.8772577'
p4962
tp4963
I2
s(S'106.7170506'
p4964
S'-6.4376836'
p4965
tp4966
I2
s(S'106.83340845927728'
p4967
S'-6.383853488874565'
p4968
tp4969
I0
s(S'110.32492379999997'
p4970
S'-7.792943299999999'
p4971
tp4972
I0
s(S'106.7048185'
p4973
S'-6.1239583'
p4974
tp4975
I0
s(S'106.78564652065427'
p4976
S'-6.407305522205643'
p4977
tp4978
I0
s(S'106.83553719999998'
p4979
S'-6.436980699999999'
p4980
tp4981
I0
s(S'106.6308733180299'
p4982
S'-6.260559572718616'
p4983
tp4984
I0
s(S'106.6202025'
p4985
S'-6.1805852'
p4986
tp4987
I2
s(S'106.806685'
p4988
S'-6.641268'
p4989
tp4990
I2
s(S'112.5885662'
p4991
S'-7.9388092'
p4992
tp4993
I0
s(S'112.5943261047853'
p4994
S'-7.344593895825141'
p4995
tp4996
I0
s(S'106.78118540000003'
p4997
S'-6.3375234'
p4998
tp4999
I0
s(S'107.60451590000002'
p5000
S'-6.8904501'
p5001
tp5002
I0
s(S'106.90488449999998'
p5003
S'-6.1610438'
p5004
tp5005
I0
s(S'106.83126010000001'
p5006
S'-6.378708899999999'
p5007
tp5008
I0
s(S'106.0640179'
p5009
S'-6.4058172'
p5010
tp5011
I2
s(S'106.78577810000002'
p5012
S'-6.1908192'
p5013
tp5014
I0
s(S'106.81664616928106'
p5015
S'-6.357416788396223'
p5016
tp5017
I0
s(S'106.64956600000005'
p5018
S'-6.2452818'
p5019
tp5020
I0
s(S'106.6527099'
p5021
S'-6.2023936'
p5022
tp5023
I2
s(S'106.9790869'
p5024
S'-6.1919992'
p5025
tp5026
I0
s(S'106.79082'
p5027
S'-6.594293'
p5028
tp5029
I2
s(S'106.79719'
p5030
S'-6.5537644'
p5031
tp5032
I0
s(S'112.62139380000008'
p5033
S'-7.983908100000001'
p5034
tp5035
I2
s(S'106.81823559999998'
p5036
S'-6.194692'
p5037
tp5038
I2
s(S'107.0007987'
p5039
S'-6.1553921'
p5040
tp5041
I0
s(S'106.7416578'
p5042
S'-6.4972977'
p5043
tp5044
I2
s(S'106.7540928'
p5045
S'-6.3683863'
p5046
tp5047
I0
s(S'106.8679899'
p5048
S'-6.2490679'
p5049
tp5050
I2
s(S'108.54154270000004'
p5051
S'-6.7109937'
p5052
tp5053
I0
s(S'106.947201'
p5054
S'-6.211682'
p5055
tp5056
I0
s(S'106.91070769999999'
p5057
S'-6.163888099999999'
p5058
tp5059
I0
s(S'106.7761208'
p5060
S'-6.261886'
p5061
tp5062
I2
s(S'106.8066165'
p5063
S'-6.3509483'
p5064
tp5065
I0
s(S'106.0111203'
p5066
S'-6.0025343'
p5067
tp5068
I2
s(S'106.91734205424'
p5069
S'-6.1540286362631'
p5070
tp5071
I2
s(S'106.81394969999997'
p5072
S'-6.1833432'
p5073
tp5074
I2
s(S'107.025901'
p5075
S'-6.3140869'
p5076
tp5077
I2
s(S'106.8532381'
p5078
S'-6.1857021'
p5079
tp5080
I2
s(S'109.3799127'
p5081
S'-0.0975898'
p5082
tp5083
I0
s(S'107.58010330000002'
p5084
S'-6.9757129'
p5085
tp5086
I2
s(S'106.80013959999997'
p5087
S'-6.2436219'
p5088
tp5089
I2
s(S'106.73669610000002'
p5090
S'-6.1091161'
p5091
tp5092
I0
s(S'106.83685783566'
p5093
S'-6.2136477335116'
p5094
tp5095
I0
s(S'106.78539219999993'
p5096
S'-6.389968199999999'
p5097
tp5098
I2
s(S'106.82086030376581'
p5099
S'-6.359873607249825'
p5100
tp5101
I0
s(S'106.82229977576299'
p5102
S'-6.429272129922075'
p5103
tp5104
I0
s(S'106.742319'
p5105
S'-6.1912334'
p5106
tp5107
I2
s(S'113.7186561'
p5108
S'-8.1686778'
p5109
tp5110
I2
s(S'106.48374509999996'
p5111
S'-6.261887499999999'
p5112
tp5113
I2
s(S'106.6733441'
p5114
S'-6.2503029'
p5115
tp5116
I2
s(S'112.6842547'
p5117
S'-7.2355318'
p5118
tp5119
I0
s(S'107.0189861'
p5120
S'-6.176658'
p5121
tp5122
I0
s(S'110.78227719999995'
p5123
S'-7.5816159'
p5124
tp5125
I0
s(S'107.16026829999998'
p5126
S'-6.277679099999999'
p5127
tp5128
I2
s(S'112.664701'
p5129
S'-7.896866'
p5130
tp5131
I0
s(S'111.47528510000006'
p5132
S'-0.2787808'
p5133
tp5134
I2
s(S'106.798857'
p5135
S'-6.455469'
p5136
tp5137
I2
s(S'112.5960268'
p5138
S'-7.0934905'
p5139
tp5140
I2
s(S'106.635025'
p5141
S'-6.3411405'
p5142
tp5143
I0
s(S'106.68794479999997'
p5144
S'-6.315418113869698'
p5145
tp5146
I0
s(S'106.7975417'
p5147
S'-6.5259807'
p5148
tp5149
I0
s(S'112.75208829999997'
p5150
S'-7.2574719'
p5151
tp5152
I2
s(S'110.3859913'
p5153
S'-7.842653299999999'
p5154
tp5155
I2
s(S'106.7983375'
p5156
S'-6.2638047'
p5157
tp5158
I0
s(S'107.59341900000004'
p5159
S'-6.9533048'
p5160
tp5161
I0
s(S'106.6893180910156'
p5162
S'-6.314607669987838'
p5163
tp5164
I2
s(S'106.98865799999999'
p5165
S'-6.1881311'
p5166
tp5167
I0
s(S'106.682188'
p5168
S'-6.1656824'
p5169
tp5170
I2
s(S'107.6876714'
p5171
S'-6.8847893'
p5172
tp5173
I0
s(S'112.5334492'
p5174
S'-7.8830648'
p5175
tp5176
I2
s(S'107.00074810000001'
p5177
S'-6.1687199'
p5178
tp5179
I0
s(S'106.7970599'
p5180
S'-6.6814912'
p5181
tp5182
I0
s(S'106.79055061951'
p5183
S'-6.2823041752244'
p5184
tp5185
I0
s(S'115.15927179999994'
p5186
S'-8.8211166'
p5187
tp5188
I0
s(S'107.59799299999997'
p5189
S'-6.8514412'
p5190
tp5191
I0
s(S'110.34451230000002'
p5192
S'-7.846468799999999'
p5193
tp5194
I0
s(S'107.14845209999999'
p5195
S'-6.247446600000001'
p5196
tp5197
I2
s(S'106.9479675'
p5198
S'-6.322659499999999'
p5199
tp5200
I2
s(S'106.7905330397034'
p5201
S'-6.176890651135625'
p5202
tp5203
I0
s(S'112.69684789999997'
p5204
S'-7.314749399999999'
p5205
tp5206
I0
s(S'106.947999'
p5207
S'-6.205279'
p5208
tp5209
I0
s(S'106.71777350000002'
p5210
S'-6.1667356'
p5211
tp5212
I0
s(S'106.65523189999999'
p5213
S'-6.3132009'
p5214
tp5215
I0
s(S'106.78101200000003'
p5216
S'-6.2495818'
p5217
tp5218
I2
s(S'106.6718702'
p5219
S'-6.2823282'
p5220
tp5221
I0
s(S'116.85829089999993'
p5222
S'-1.2177936'
p5223
tp5224
I0
s(S'106.43175329999997'
p5225
S'-6.2734443'
p5226
tp5227
I0
s(S'112.80717292883605'
p5228
S'-7.292760872752718'
p5229
tp5230
I0
s(S'98.63256109999998'
p5231
S'3.6059085'
p5232
tp5233
I2
s(S'106.77916981003409'
p5234
S'-6.411800525238099'
p5235
tp5236
I0
s(S'106.4235269'
p5237
S'-6.2567412'
p5238
tp5239
I0
s(S'106.79784950858152'
p5240
S'-6.697292172383756'
p5241
tp5242
I0
s(S'103.6131203'
p5243
S'-1.6101229'
p5244
tp5245
I2
s(S'110.8243272'
p5246
S'-7.5754887'
p5247
tp5248
I2
s(S'106.73525840000002'
p5249
S'-6.1486651'
p5250
tp5251
I0
s(S'115.15372679999996'
p5252
S'-8.8032129'
p5253
tp5254
I0
s(S'112.68541729999993'
p5255
S'-7.315256499999999'
p5256
tp5257
I2
s(S'106.85471329999996'
p5258
S'-6.2328959'
p5259
tp5260
I2
s(S'112.77065909999999'
p5261
S'-7.3283004'
p5262
tp5263
I0
s(S'106.76897815256'
p5264
S'-6.2378161736959'
p5265
tp5266
I0
s(S'106.83989182380378'
p5267
S'-6.4073310001406965'
p5268
tp5269
I0
s(S'107.68782379999993'
p5270
S'-6.922278599999999'
p5271
tp5272
I0
s(S'106.7385486'
p5273
S'-6.4275148'
p5274
tp5275
I0
s(S'106.68781605396725'
p5276
S'-6.315076874495122'
p5277
tp5278
I0
s(S'107.02736950000008'
p5279
S'-6.320455399999999'
p5280
tp5281
I2
s(S'107.66444709999996'
p5282
S'-6.8965422'
p5283
tp5284
I2
s(S'110.37727440000003'
p5285
S'-7.808836799999999'
p5286
tp5287
I0
s(S'105.2667887'
p5288
S'-5.3971396'
p5289
tp5290
I2
s(S'106.82637279999994'
p5291
S'-6.249181099999999'
p5292
tp5293
I0
s(S'106.98082220000003'
p5294
S'-6.1822062'
p5295
tp5296
I0
s(S'107.65741871423347'
p5297
S'-6.956270476367663'
p5298
tp5299
I0
s(S'115.23380999999995'
p5300
S'-8.558978999999999'
p5301
tp5302
I0
s(S'106.79982769999992'
p5303
S'-6.3498928'
p5304
tp5305
I0
s(S'107.01991961824649'
p5306
S'-6.219808681000317'
p5307
tp5308
I0
s(S'106.80661650000002'
p5309
S'-6.350948300000001'
p5310
tp5311
I0
s(S'106.82373740000003'
p5312
S'-6.2939813'
p5313
tp5314
I2
s(S'106.4052541'
p5315
S'-6.2614858'
p5316
tp5317
I0
s(S'110.4342461'
p5318
S'-7.0607997'
p5319
tp5320
I0
s(S'106.90582616878669'
p5321
S'-6.2353346714061155'
p5322
tp5323
I0
s(S'110.35678269999994'
p5324
S'-7.710899899999999'
p5325
tp5326
I2
s(S'106.86558360000004'
p5327
S'-6.1782946'
p5328
tp5329
I0
s(S'106.81059979999998'
p5330
S'-6.2614927'
p5331
tp5332
I2
s(S'106.78539219999993'
p5333
S'-6.159817599999999'
p5334
tp5335
I2
s(S'106.66551400000003'
p5336
S'-6.2922121'
p5337
tp5338
I0
s(S'106.84131909999996'
p5339
S'-6.2243895'
p5340
tp5341
I0
s(S'106.98311940000008'
p5342
S'-6.2335156'
p5343
tp5344
I2
s(S'106.9771827'
p5345
S'-6.258244'
p5346
tp5347
I2
s(S'106.81082019999997'
p5348
S'-6.185782'
p5349
tp5350
I0
s(S'108.53424870000003'
p5351
S'-7.3706874'
p5352
tp5353
I2
s(S'106.84815431120603'
p5354
S'-6.418323259419212'
p5355
tp5356
I0
s(S'106.71310570000003'
p5357
S'-6.1345611'
p5358
tp5359
I0
s(S'106.82078750000005'
p5360
S'-6.250614400000001'
p5361
tp5362
I2
s(S'107.44627170000001'
p5363
S'-6.540666499999999'
p5364
tp5365
I0
s(S'106.8370122'
p5366
S'-6.2641406'
p5367
tp5368
I2
s(S'106.8387122'
p5369
S'-6.4482299'
p5370
tp5371
I0
s(S'106.6674484'
p5372
S'-6.2658414'
p5373
tp5374
I2
s(S'106.68813791904904'
p5375
S'-6.315183511823841'
p5376
tp5377
I0
s(S'106.70577330000003'
p5378
S'-6.1342937'
p5379
tp5380
I2
s(S'106.95652059999998'
p5381
S'-6.2257275'
p5382
tp5383
I0
s(S'106.731048'
p5384
S'-6.5842593'
p5385
tp5386
I0
s(S'106.75851940000007'
p5387
S'-6.4054537'
p5388
tp5389
I0
s(S'106.94663889999993'
p5390
S'-6.2104868'
p5391
tp5392
I0
s(S'107.2966525'
p5393
S'-6.3015658'
p5394
tp5395
I0
s(S'107.062802'
p5396
S'-6.2681716'
p5397
tp5398
I2
s(S'107.00384740000004'
p5399
S'-6.176248600000001'
p5400
tp5401
I0
s(S'106.79459548150635'
p5402
S'-6.336632411508475'
p5403
tp5404
I0
s(S'106.91520209999999'
p5405
S'-6.2730676'
p5406
tp5407
I0
s(S'106.7129708'
p5408
S'-6.1779146'
p5409
tp5410
I0
s(S'106.8266873'
p5411
S'-6.2197608'
p5412
tp5413
I2
s(S'106.89834259999998'
p5414
S'-6.2292875'
p5415
tp5416
I2
s(S'106.9683273'
p5417
S'-6.3735946'
p5418
tp5419
I2
s(S'106.6605793'
p5420
S'-6.2238186'
p5421
tp5422
I0
s(S'116.88909620000004'
p5423
S'-1.2427572'
p5424
tp5425
I0
s(S'107.71111805659177'
p5426
S'-6.918543314413724'
p5427
tp5428
I0
s(S'106.84766620000005'
p5429
S'-6.1454084'
p5430
tp5431
I0
s(S'106.99902150000003'
p5432
S'-6.702818799999999'
p5433
tp5434
I0
s(S'106.75209940000002'
p5435
S'-6.2703682'
p5436
tp5437
I0
s(S'112.62736089999999'
p5438
S'-7.252555399999999'
p5439
tp5440
I0
s(S'106.8529877026856'
p5441
S'-6.147627169206774'
p5442
tp5443
I0
s(S'101.4388424'
p5444
S'0.4436328'
p5445
tp5446
I0
s(S'106.78296879999994'
p5447
S'-6.1663996'
p5448
tp5449
I2
s(S'106.98552080000002'
p5450
S'-6.187062399999999'
p5451
tp5452
I0
s(S'115.23831419999999'
p5453
S'-8.636135099999999'
p5454
tp5455
I0
s(S'107.58635049999998'
p5456
S'-6.918636200000001'
p5457
tp5458
I0
s(S'106.77965549999999'
p5459
S'-6.1105733'
p5460
tp5461
I0
s(S'106.8340911'
p5462
S'-6.1864864'
p5463
tp5464
I2
s(S'112.63539709999998'
p5465
S'-8.0138032'
p5466
tp5467
I0
s(S'106.8384873'
p5468
S'-6.2704829'
p5469
tp5470
I0
s(S'112.4401329'
p5471
S'-7.4704747'
p5472
tp5473
I2
s(S'107.60229649999997'
p5474
S'-6.9529665'
p5475
tp5476
I0
s(S'110.41012209999997'
p5477
S'-7.8326183'
p5478
tp5479
I2
s(S'106.72313529999997'
p5480
S'-6.135530399999999'
p5481
tp5482
I0
s(S'107.0185123'
p5483
S'-6.7131574'
p5484
tp5485
I2
s(S'106.92339679999998'
p5486
S'-6.380419400000001'
p5487
tp5488
I0
s(S'110.59502299999997'
p5489
S'-7.520529999999999'
p5490
tp5491
I2
s(S'107.5875009'
p5492
S'-6.9406515'
p5493
tp5494
I0
s(S'106.80765235899958'
p5495
S'-6.381537331178965'
p5496
tp5497
I0
s(S'112.6603426'
p5498
S'-7.4685141'
p5499
tp5500
I2
s(S'106.71121530000005'
p5501
S'-6.179260699999999'
p5502
tp5503
I0
s(S'106.9152021'
p5504
S'-6.1658278'
p5505
tp5506
I2
s(S'106.9152021'
p5507
S'-6.2321915'
p5508
tp5509
I0
s(S'106.87528396214'
p5510
S'-6.1447019526477'
p5511
tp5512
I0
s(S'106.94855'
p5513
S'-6.212064'
p5514
tp5515
I0
s(S'106.71756690000007'
p5516
S'-6.3077057'
p5517
tp5518
I2
s(S'106.88284870000007'
p5519
S'-6.3569039'
p5520
tp5521
I2
s(S'106.81547360000002'
p5522
S'-6.218408800000001'
p5523
tp5524
I0
s(S'106.781616'
p5525
S'-6.2028025'
p5526
tp5527
I2
s(S'107.6156133'
p5528
S'-6.8919604'
p5529
tp5530
I2
s(S'106.6558554'
p5531
S'-6.3125171'
p5532
tp5533
I0
s(S'0'
p5534
g5534
tp5535
I2
s(S'106.97718269999996'
p5536
S'-6.258243999999999'
p5537
tp5538
I2
s(S'106.73150299999998'
p5539
S'-6.1400521'
p5540
tp5541
I0
s(S'107.1779936'
p5542
S'-6.3639378'
p5543
tp5544
I0
s(S'107.67498720000003'
p5545
S'-6.9181629'
p5546
tp5547
I0
s(S'115.15674369999999'
p5548
S'-8.6763437'
p5549
tp5550
I0
s(S'106.9469559'
p5551
S'-6.2088137'
p5552
tp5553
I0
s(S'106.6525479'
p5554
S'-6.2434437'
p5555
tp5556
I0
s(S'115.15312689999996'
p5557
S'-8.6729047'
p5558
tp5559
I0
s(S'113.68592749999993'
p5560
S'-8.1986068'
p5561
tp5562
I2
s(S'107.679395'
p5563
S'-6.9188632'
p5564
tp5565
I0
s(S'106.84006820000002'
p5566
S'-6.4510008'
p5567
tp5568
I0
s(S'106.88101170287'
p5569
S'-6.2230682753156'
p5570
tp5571
I2
s(S'106.66354810000007'
p5572
S'-6.281948700000001'
p5573
tp5574
I2
s(S'106.702825'
p5575
S'-6.2953922'
p5576
tp5577
I2
s(S'107.66466300000002'
p5578
S'-6.960703899999999'
p5579
tp5580
I2
s(S'106.7219896'
p5581
S'-6.2755769'
p5582
tp5583
I0
s(S'114.5943784'
p5584
S'-3.3186067'
p5585
tp5586
I2
s(S'112.81517898839115'
p5587
S'-7.280458115585908'
p5588
tp5589
I2
s(S'106.91845620000004'
p5590
S'-6.1406073'
p5591
tp5592
I0
s(S'106.7795043'
p5593
S'-6.1166147'
p5594
tp5595
I0
s(S'107.85459390000005'
p5596
S'-7.0118879'
p5597
tp5598
I0
s(S'106.8104633'
p5599
S'-6.2266758'
p5600
tp5601
I2
s(S'106.947666'
p5602
S'-6.1826294'
p5603
tp5604
I2
s(S'107.0009621'
p5605
S'-6.1783774'
p5606
tp5607
I0
s(S'115.2126293'
p5608
S'-8.6704582'
p5609
tp5610
I2
s(S'106.773595'
p5611
S'-6.23682'
p5612
tp5613
I0
s(S'115.17522770000005'
p5614
S'-8.7237964'
p5615
tp5616
I2
s(S'106.8743216'
p5617
S'-6.3473802'
p5618
tp5619
I0
s(S'106.62028869999995'
p5620
S'-6.5700742'
p5621
tp5622
I0
s(S'106.8281922635681'
p5623
S'-6.376851474535032'
p5624
tp5625
I0
s(S'110.14025939999999'
p5626
S'-7.150975'
p5627
tp5628
I2
s(S'106.81858642248'
p5629
S'-6.210851803015'
p5630
tp5631
I0
s(S'110.38293060000001'
p5632
S'-7.7205575'
p5633
tp5634
I0
s(S'107.6365673'
p5635
S'-6.9122338'
p5636
tp5637
I0
s(S'106.8709404'
p5638
S'-6.6103262'
p5639
tp5640
I2
s(S'106.943681'
p5641
S'-6.397579'
p5642
tp5643
I0
s(S'115.1246918'
p5644
S'-8.5375566'
p5645
tp5646
I2
s(S'106.9590364'
p5647
S'-6.2924679'
p5648
tp5649
I0
s(S'110.3859913'
p5650
S'-7.8426533'
p5651
tp5652
I2
s(S'106.91212280000002'
p5653
S'-6.1584929'
p5654
tp5655
I0
s(S'110.3993969'
p5656
S'-7.7815151'
p5657
tp5658
I0
s(S'106.82999999999993'
p5659
S'-6.39'
p5660
tp5661
I2
s(S'106.82274280000001'
p5662
S'-6.194533499999999'
p5663
tp5664
I0
s(S'106.91736800000001'
p5665
S'-6.376414'
p5666
tp5667
I0
s(S'107.10367910000002'
p5668
S'-6.3897657'
p5669
tp5670
I0
s(S'106.84749365847472'
p5671
S'-6.405985652835575'
p5672
tp5673
I0
s(S'112.75395330000003'
p5674
S'-7.318119999999999'
p5675
tp5676
I0
s(S'106.6880841'
p5677
S'-6.395769'
p5678
tp5679
I2
s(S'106.7588494'
p5680
S'-6.1683295'
p5681
tp5682
I2
s(S'119.4237365'
p5683
S'-5.1837349'
p5684
tp5685
I2
s(S'112.64224161586912'
p5686
S'-7.277724929412656'
p5687
tp5688
I0
s(S'106.7400065'
p5689
S'-6.2637093'
p5690
tp5691
I0
s(S'106.9004472'
p5692
S'-6.2250138'
p5693
tp5694
I2
s(S'107.00359800000001'
p5695
S'-6.1763049'
p5696
tp5697
I0
s(S'106.83815800000002'
p5698
S'-6.7128814'
p5699
tp5700
I2
s(S'106.78539219999993'
p5701
S'-6.113894200000001'
p5702
tp5703
I0
s(S'107.64973510000004'
p5704
S'-6.910569499999999'
p5705
tp5706
I2
s(S'106.78726871639401'
p5707
S'-6.380387273930375'
p5708
tp5709
I0
s(S'106.79358036983649'
p5710
S'-6.400652622423016'
p5711
tp5712
I0
s(S'106.72051540000007'
p5713
S'-6.1721148'
p5714
tp5715
I2
s(S'107.6578179'
p5716
S'-6.9100189'
p5717
tp5718
I0
s(S'107.62279609999996'
p5719
S'-6.8162073'
p5720
tp5721
I2
s(S'112.61372329999995'
p5722
S'-8.0037374'
p5723
tp5724
I0
s(S'106.82858390000001'
p5725
S'-6.4676559'
p5726
tp5727
I0
s(S'106.711101'
p5728
S'-6.177647'
p5729
tp5730
I2
s(S'110.38834500000007'
p5731
S'-7.712867399999999'
p5732
tp5733
I2
s(S'113.7009312'
p5734
S'-8.1733118'
p5735
tp5736
I2
s(S'107.0155599'
p5737
S'-6.2186791'
p5738
tp5739
I2
s(S'106.8561884'
p5740
S'-6.5671524'
p5741
tp5742
I0
s(S'106.82947089999993'
p5743
S'-6.4524722'
p5744
tp5745
I0
s(S'110.39939690000006'
p5746
S'-7.755802099999999'
p5747
tp5748
I0
s(S'106.7411559'
p5749
S'-6.3478915'
p5750
tp5751
I2
s(S'106.9874456'
p5752
S'-6.1506969'
p5753
tp5754
I2
s(S'106.7337841'
p5755
S'-6.1423316'
p5756
tp5757
I2
s(S'106.80308919999993'
p5758
S'-6.640965800000001'
p5759
tp5760
I0
s(S'106.776115'
p5761
S'-6.2857821'
p5762
tp5763
I0
s(S'115.2956118'
p5764
S'-8.3921715'
p5765
tp5766
I0
s(S'112.51541640000005'
p5767
S'-7.884395800000001'
p5768
tp5769
I0
s(S'106.85530229999995'
p5770
S'-6.5683873'
p5771
tp5772
I2
s(S'112.73145799999998'
p5773
S'-7.328951999999999'
p5774
tp5775
I0
s(S'106.83423199999993'
p5776
S'-6.317508'
p5777
tp5778
I0
s(S'106.7794935'
p5779
S'-6.4260468'
p5780
tp5781
I2
s(S'106.9494502'
p5782
S'-6.170914400000001'
p5783
tp5784
I0
s(S'106.81290639206543'
p5785
S'-6.342779664580484'
p5786
tp5787
I0
s(S'106.80836320000003'
p5788
S'-6.2579157'
p5789
tp5790
I0
s(S'106.77333820000001'
p5791
S'-6.2814274'
p5792
tp5793
I2
s(S'106.92995789999998'
p5794
S'-6.9277361'
p5795
tp5796
I2
s(S'106.7676967'
p5797
S'-6.4213147'
p5798
tp5799
I0
s(S'106.8001396'
p5800
S'-6.3971623'
p5801
tp5802
I2
s(S'110.3694896'
p5803
S'-7.7955798'
p5804
tp5805
I2
s(S'106.81807409999999'
p5806
S'-6.2735997'
p5807
tp5808
I0
s(S'106.69000740463'
p5809
S'-6.3110564997867'
p5810
tp5811
I0
s(S'106.6770789'
p5812
S'-6.2386076'
p5813
tp5814
I0
s(S'106.67393659999993'
p5815
S'-6.3493032'
p5816
tp5817
I0
s(S'106.927815'
p5818
S'-6.383505'
p5819
tp5820
I0
s(S'107.02296869999998'
p5821
S'-6.1758228'
p5822
tp5823
I0
s(S'106.9418385'
p5824
S'-6.1642021'
p5825
tp5826
I0
s(S'107.69848790000003'
p5827
S'-6.950576799999999'
p5828
tp5829
I0
s(S'112.62929462852776'
p5830
S'-7.297652213973057'
p5831
tp5832
I0
s(S'106.79915010000002'
p5833
S'-6.3870584'
p5834
tp5835
I2
s(S'110.45180649999998'
p5836
S'-7.737737099999999'
p5837
tp5838
I0
s(S'110.3249238'
p5839
S'-7.8341286'
p5840
tp5841
I2
s(S'106.63502500000004'
p5842
S'-6.341140500000001'
p5843
tp5844
I2
s(S'106.7087216'
p5845
S'-6.2849642'
p5846
tp5847
I0
s(S'115.2131124'
p5848
S'-8.7021608'
p5849
tp5850
I0
s(S'113.69815730000005'
p5851
S'-8.2033725'
p5852
tp5853
I2
s(S'106.78914800000007'
p5854
S'-6.1754302'
p5855
tp5856
I0
s(S'106.8466972'
p5857
S'-6.2432858'
p5858
tp5859
I0
s(S'107.67258479999998'
p5860
S'-6.903698599999999'
p5861
tp5862
I2
s(S'106.99489449999999'
p5863
S'-6.119900400000001'
p5864
tp5865
I2
s(S'107.56970460000002'
p5866
S'-6.8784557'
p5867
tp5868
I0
s(S'106.77405490000001'
p5869
S'-6.601852999999999'
p5870
tp5871
I0
s(S'106.6998896'
p5872
S'-6.2443051'
p5873
tp5874
I0
s(S'106.90879169999994'
p5875
S'-6.3931301'
p5876
tp5877
I0
s(S'112.7985946'
p5878
S'-7.3221792'
p5879
tp5880
I0
s(S'106.84155'
p5881
S'-6.162041'
p5882
tp5883
I0
s(S'107.0121159'
p5884
S'-6.1817703'
p5885
tp5886
I0
s(S'106.82687809999993'
p5887
S'-6.428937899999999'
p5888
tp5889
I0
s(S'107.29665249999994'
p5890
S'-6.3015658'
p5891
tp5892
I2
s(S'106.792466'
p5893
S'-6.3943199'
p5894
tp5895
I0
s(S'106.7617984'
p5896
S'-6.2678825'
p5897
tp5898
I0
s(S'107.55390369999998'
p5899
S'-6.966509400000001'
p5900
tp5901
I0
s(S'106.7131057'
p5902
S'-6.1345611'
p5903
tp5904
I0
s(S'112.6613657'
p5905
S'-7.8933989'
p5906
tp5907
I0
s(S'106.956456'
p5908
S'-6.3940845'
p5909
tp5910
I0
s(S'107.6984879'
p5911
S'-6.9505768'
p5912
tp5913
I2
s(S'107.18106220000004'
p5914
S'-6.2890948'
p5915
tp5916
I2
s(S'106.79754170000001'
p5917
S'-6.5259807'
p5918
tp5919
I0
s(S'106.71038339999996'
p5920
S'-6.1242237'
p5921
tp5922
I0
s(S'106.98730439999997'
p5923
S'-6.2720856'
p5924
tp5925
I0
s(S'106.87979199999995'
p5926
S'-6.356087199999999'
p5927
tp5928
I0
s(S'112.6794582'
p5929
S'-8.0503973'
p5930
tp5931
I0
s(S'106.7927658'
p5932
S'-6.6143168'
p5933
tp5934
I0
s(S'112.6448266'
p5935
S'-8.0323059'
p5936
tp5937
I2
s(S'106.7503557'
p5938
S'-6.4381941'
p5939
tp5940
I0
s(S'106.57608570000002'
p5941
S'-6.1179866'
p5942
tp5943
I0
s(S'106.88256560964805'
p5944
S'-6.322595498227245'
p5945
tp5946
I0
s(S'107.67834919999996'
p5947
S'-6.921879199999999'
p5948
tp5949
I0
s(S'106.82958559999997'
p5950
S'-6.2245662'
p5951
tp5952
I0
s(S'106.75614547360237'
p5953
S'-6.262155274535979'
p5954
tp5955
I0
s(S'107.8554249'
p5956
S'-7.0140266'
p5957
tp5958
I2
s(S'106.9565206'
p5959
S'-6.2257275'
p5960
tp5961
I0
s(S'110.4619591'
p5962
S'-7.0447231'
p5963
tp5964
I0
s(S'106.73854860000006'
p5965
S'-6.4275148'
p5966
tp5967
I0
s(S'112.6824377'
p5968
S'-7.307856'
p5969
tp5970
I0
s(S'110.31300869999995'
p5971
S'-7.8450254'
p5972
tp5973
I0
s(S'106.82762090000006'
p5974
S'-6.324466000000001'
p5975
tp5976
I0
s(S'106.72236769999995'
p5977
S'-6.1362994'
p5978
tp5979
I0
s(S'106.74241830000005'
p5980
S'-6.186746299999999'
p5981
tp5982
I0
s(S'106.74931909999998'
p5983
S'-6.1234965'
p5984
tp5985
I0
s(S'109.3425039'
p5986
S'-0.0263303'
p5987
tp5988
I2
s(S'106.6173415'
p5989
S'-6.2956209'
p5990
tp5991
I0
s(S'106.523687'
p5992
S'-6.238613'
p5993
tp5994
I0
s(S'106.81339561429445'
p5995
S'-6.416364738008537'
p5996
tp5997
I0
s(S'110.40844749999997'
p5998
S'-7.711651600000001'
p5999
tp6000
I0
s(S'106.68779459629513'
p6001
S'-6.315119529429244'
p6002
tp6003
I0
s(S'106.837985'
p6004
S'-6.389519'
p6005
tp6006
I0
s(S'106.82713459626461'
p6007
S'-6.388140936722788'
p6008
tp6009
I0
s(S'106.6880950037048'
p6010
S'-6.315268821671003'
p6011
tp6012
I0
s(S'112.79597710000007'
p6013
S'-7.266361400000001'
p6014
tp6015
I0
s(S'106.8141947'
p6016
S'-6.4930071'
p6017
tp6018
I0
s(S'107.04280540000002'
p6019
S'-6.4537799'
p6020
tp6021
I0
s(S'106.98048760000006'
p6022
S'-6.2077067'
p6023
tp6024
I0
s(S'106.67696000000001'
p6025
S'-6.3200695'
p6026
tp6027
I0
s(S'106.83106069999997'
p6028
S'-6.433007399999999'
p6029
tp6030
I0
s(S'112.6450539'
p6031
S'-7.2993011'
p6032
tp6033
I0
s(S'106.9963705'
p6034
S'-6.2435635'
p6035
tp6036
I0
s(S'106.79725271318352'
p6037
S'-6.37734535618464'
p6038
tp6039
I0
s(S'106.81235169154047'
p6040
S'-6.317701259333785'
p6041
tp6042
I0
s(S'106.7609066'
p6043
S'-6.2843082'
p6044
tp6045
I0
s(S'106.8915948'
p6046
S'-6.4171509'
p6047
tp6048
I2
s(S'106.792057'
p6049
S'-6.282601499999999'
p6050
tp6051
I0
s(S'106.78869740000005'
p6052
S'-6.2265465'
p6053
tp6054
I0
s(S'106.8325625'
p6055
S'-6.3218167'
p6056
tp6057
I0
s(S'110.4277032'
p6058
S'-7.0474739'
p6059
tp6060
I0
s(S'106.7411559'
p6061
S'-6.1127546'
p6062
tp6063
I0
s(S'106.67579055686952'
p6064
S'-6.323865738738229'
p6065
tp6066
I0
s(S'107.27255049999997'
p6067
S'-7.2874884'
p6068
tp6069
I2
s(S'106.68805208836056'
p6070
S'-6.3153328040471415'
p6071
tp6072
I0
s(S'106.9484973'
p6073
S'-6.2127109'
p6074
tp6075
I0
s(S'106.86748669999997'
p6076
S'-6.1761935'
p6077
tp6078
I0
s(S'106.84422889999996'
p6079
S'-6.2659077'
p6080
tp6081
I0
s(S'106.9583125'
p6082
S'-6.4526242'
p6083
tp6084
I0
s(S'106.7054518'
p6085
S'-6.1266839'
p6086
tp6087
I0
s(S'106.6320777'
p6088
S'-6.2362927'
p6089
tp6090
I0
s(S'106.76179839999998'
p6091
S'-6.2678825'
p6092
tp6093
I2
s(S'106.76022310000008'
p6094
S'-6.1066536'
p6095
tp6096
I0
s(S'106.90695740000001'
p6097
S'-6.1529457'
p6098
tp6099
I0
s(S'106.89996539999993'
p6100
S'-6.1571283'
p6101
tp6102
I0
s(S'106.62019659999999'
p6103
S'-6.2434696'
p6104
tp6105
I0
s(S'106.81399283967289'
p6106
S'-6.320299105046534'
p6107
tp6108
I0
s(S'112.59458359685073'
p6109
S'-7.344604536633618'
p6110
tp6111
I0
s(S'107.1366365'
p6112
S'-6.3193373'
p6113
tp6114
I0
s(S'106.7190298'
p6115
S'-6.1185387'
p6116
tp6117
I2
s(S'106.96835770000007'
p6118
S'-6.2573048'
p6119
tp6120
I0
s(S'110.38836220000007'
p6121
S'-7.7128457'
p6122
tp6123
I0
s(S'106.8237374'
p6124
S'-6.6119609'
p6125
tp6126
I2
s(S'112.61390549999999'
p6127
S'-7.998130199999999'
p6128
tp6129
I0
s(S'107.72860509999998'
p6130
S'-6.9294248'
p6131
tp6132
I0
s(S'112.8045928'
p6133
S'-7.3391634'
p6134
tp6135
I2
s(S'106.682188'
p6136
S'-6.186116'
p6137
tp6138
I2
s(S'106.98899040000003'
p6139
S'-6.2067931'
p6140
tp6141
I0
s(S'106.810599799999'
p6142
S'-6.2614927'
p6143
tp6144
I2
s(S'106.791291'
p6145
S'-6.1902622'
p6146
tp6147
I0
s(S'106.748528'
p6148
S'-6.2644802'
p6149
tp6150
I2
s(S'98.62994049999998'
p6151
S'3.7092972'
p6152
tp6153
I0
s(S'106.7399428'
p6154
S'-6.263601'
p6155
tp6156
I0
s(S'112.60633430000007'
p6157
S'-7.9871868'
p6158
tp6159
I0
s(S'106.7453307'
p6160
S'-6.2182191'
p6161
tp6162
I2
s(S'106.85849200000007'
p6163
S'-6.418128'
p6164
tp6165
I2
s(S'106.69813350000004'
p6166
S'-6.269585200000001'
p6167
tp6168
I0
s(S'106.90044720000003'
p6169
S'-6.245447299999999'
p6170
tp6171
I2
s(S'106.9365341'
p6172
S'-6.2431759'
p6173
tp6174
I0
s(S'106.7883416'
p6175
S'-6.162275'
p6176
tp6177
I2
s(S'106.94424253121338'
p6178
S'-6.3379680576945425'
p6179
tp6180
I0
s(S'106.87307550000003'
p6181
S'-6.146067899999999'
p6182
tp6183
I0
s(S'106.8324678'
p6184
S'-6.2226997'
p6185
tp6186
I0
s(S'106.7683591'
p6187
S'-6.424919'
p6188
tp6189
I0
s(S'106.85142910000002'
p6190
S'-6.5677203'
p6191
tp6192
I0
s(S'112.71074329999999'
p6193
S'-7.282440200000001'
p6194
tp6195
I0
s(S'106.75569900000005'
p6196
S'-6.188188999999999'
p6197
tp6198
I0
s(S'107.02736950000008'
p6199
S'-6.294897600000001'
p6200
tp6201
I2
s(S'106.6662937'
p6202
S'-6.267434'
p6203
tp6204
I0
s(S'107.73253290000002'
p6205
S'-6.9351148'
p6206
tp6207
I0
s(S'106.91520209999999'
p6208
S'-6.1658278'
p6209
tp6210
I0
s(S'109.35371609999993'
p6211
S'-0.0604543'
p6212
tp6213
I0
s(S'106.83140260000005'
p6214
S'-6.3783484'
p6215
tp6216
I0
s(S'107.60893650000003'
p6217
S'-6.9203505'
p6218
tp6219
I2
s(S'106.7057733'
p6220
S'-6.1342937'
p6221
tp6222
I2
s(S'106.82078750000005'
p6223
S'-6.2608384'
p6224
tp6225
I0
s(S'107.0451237'
p6226
S'-6.2845993'
p6227
tp6228
I0
s(S'107.4458174111146'
p6229
S'-6.464173836789056'
p6230
tp6231
I0
s(S'106.5258761'
p6232
S'-6.245265799999999'
p6233
tp6234
I0
s(S'106.80193267287746'
p6235
S'-6.372293797848128'
p6236
tp6237
I0
s(S'107.0214647'
p6238
S'-6.1827668'
p6239
tp6240
I0
s(S'106.711007'
p6241
S'-6.3509654'
p6242
tp6243
I0
s(S'106.83438550000005'
p6244
S'-6.2899382'
p6245
tp6246
I0
s(S'98.6200418'
p6247
S'3.6057795'
p6248
tp6249
I0
s(S'108.1628879'
p6250
S'-6.6792502'
p6251
tp6252
I0
s(S'107.56974709999997'
p6253
S'-6.8486681'
p6254
tp6255
I0
s(S'112.80775048116'
p6256
S'-7.2727746561023'
p6257
tp6258
I0
s(S'106.7935536'
p6259
S'-6.6327855'
p6260
tp6261
I0
s(S'106.8266873'
p6262
S'-6.3476171'
p6263
tp6264
I0
s(S'106.9299579'
p6265
S'-6.9277361'
p6266
tp6267
I2
s(S'106.90748400000007'
p6268
S'-6.1463141'
p6269
tp6270
I0
s(S'106.8289412'
p6271
S'-6.2280011'
p6272
tp6273
I0
s(S'104.06076150000001'
p6274
S'1.100053'
p6275
tp6276
I2
s(S'112.61236839999992'
p6277
S'-8.0038331'
p6278
tp6279
I0
s(S'116.93108200000006'
p6280
S'-1.251687'
p6281
tp6282
I2
s(S'107.72809200000006'
p6283
S'-6.872264899999999'
p6284
tp6285
I0
s(S'106.5701927'
p6286
S'-6.2971525'
p6287
tp6288
I2
s(S'107.60230320000005'
p6289
S'-6.914484799999999'
p6290
tp6291
I2
s(S'106.789934'
p6292
S'-6.178563'
p6293
tp6294
I0
s(S'106.7516263'
p6295
S'-6.1514313'
p6296
tp6297
I0
s(S'106.76582710000002'
p6298
S'-6.3362808'
p6299
tp6300
I0
s(S'106.95356909999998'
p6301
S'-6.2079551'
p6302
tp6303
I0
s(S'112.69215959999997'
p6304
S'-7.278130399999999'
p6305
tp6306
I0
s(S'106.79948386551519'
p6307
S'-6.4794619695003135'
p6308
tp6309
I0
s(S'112.71146058595'
p6310
S'-7.2895750461779'
p6311
tp6312
I0
s(S'107.77733463377683'
p6313
S'-6.576489601146534'
p6314
tp6315
I0
s(S'106.4173379'
p6316
S'-6.2769075'
p6317
tp6318
I0
s(S'106.6969285'
p6319
S'-6.3211821'
p6320
tp6321
I0
s(S'106.8709404'
p6322
S'-6.3231156'
p6323
tp6324
I0
s(S'112.67610489999993'
p6325
S'-7.291050900000001'
p6326
tp6327
I0
s(S'106.6645007'
p6328
S'-6.2122376'
p6329
tp6330
I2
s(S'112.8135304'
p6331
S'-7.3260971'
p6332
tp6333
I2
s(S'106.71296319999999'
p6334
S'-6.177905'
p6335
tp6336
I0
s(S'107.61561329999995'
p6337
S'-6.891960399999999'
p6338
tp6339
I0
s(S'112.5394091'
p6340
S'-7.8827289'
p6341
tp6342
I2
s(S'107.1366365'
p6343
S'-6.4011523'
p6344
tp6345
I2
s(S'106.77922160000003'
p6346
S'-6.1079402'
p6347
tp6348
I0
s(S'106.78834159999997'
p6349
S'-6.3360895'
p6350
tp6351
I0
s(S'106.7561132870942'
p6352
S'-6.262123280076633'
p6353
tp6354
I0
s(S'112.81650949999994'
p6355
S'-7.2881839'
p6356
tp6357
I2
s(S'106.85451663677'
p6358
S'-6.147568847767'
p6359
tp6360
I0
s(S'106.81751801667178'
p6361
S'-6.369105186005488'
p6362
tp6363
I2
s(S'106.64030679999996'
p6364
S'-6.297927'
p6365
tp6366
I0
s(S'106.81481269999995'
p6367
S'-6.248594900000001'
p6368
tp6369
I0
s(S'106.76897957043'
p6370
S'-6.2378209747042'
p6371
tp6372
I0
s(S'112.63755370000001'
p6373
S'-7.238535300000001'
p6374
tp6375
I0
s(S'106.98231420000002'
p6376
S'-6.182123199999999'
p6377
tp6378
I0
s(S'107.58890109999993'
p6379
S'-6.849779799999999'
p6380
tp6381
I0
s(S'112.67083150000008'
p6382
S'-7.3151821'
p6383
tp6384
I0
s(S'106.77257439999994'
p6385
S'-6.500026399999999'
p6386
tp6387
I0
s(S'106.66559929999994'
p6388
S'-6.3201375'
p6389
tp6390
I2
s(S'107.0391798'
p6391
S'-6.4223934'
p6392
tp6393
I0
s(S'106.9474575'
p6394
S'-6.2083506'
p6395
tp6396
I0
s(S'112.59494837727664'
p6397
S'-7.34467902228582'
p6398
tp6399
I0
s(S'106.78827186208'
p6400
S'-6.1764779722955'
p6401
tp6402
I0
s(S'101.4025197'
p6403
S'0.455495'
p6404
tp6405
I0
s(S'106.81386409364018'
p6406
S'-6.320085832475323'
p6407
tp6408
I0
s(S'106.8072791'
p6409
S'-6.438567'
p6410
tp6411
I0
s(S'107.0893798'
p6412
S'-6.3004879'
p6413
tp6414
I2
s(S'112.75941779999994'
p6415
S'-7.412246599999999'
p6416
tp6417
I0
s(S'112.6705194'
p6418
S'-7.2782596'
p6419
tp6420
I2
s(S'110.3874808'
p6421
S'-7.8129804'
p6422
tp6423
I2
s(S'106.8268781'
p6424
S'-6.4289379'
p6425
tp6426
I0
s(S'106.71129329999996'
p6427
S'-6.2835218'
p6428
tp6429
I0
s(S'112.60946149999995'
p6430
S'-7.985057599999999'
p6431
tp6432
I0
s(S'0.0'
p6433
S'0.0'
p6434
tp6435
I2
s(S'106.80263839999998'
p6436
S'-6.449467400000001'
p6437
tp6438
I0
s(S'110.43812539999999'
p6439
S'-7.0051453'
p6440
tp6441
I2
s(S'106.78934340458'
p6442
S'-6.1754393152398'
p6443
tp6444
I0
s(S'112.79267849999997'
p6445
S'-7.260764099999998'
p6446
tp6447
I0
s(S'106.99543389999997'
p6448
S'-6.176672099999999'
p6449
tp6450
I0
s(S'106.81528030000004'
p6451
S'-6.3236688'
p6452
tp6453
I0
s(S'107.63518210000007'
p6454
S'-6.8776958'
p6455
tp6456
I2
s(S'106.81916728216'
p6457
S'-6.2266089979116'
p6458
tp6459
I0
s(S'106.93818490000001'
p6460
S'-6.2564586'
p6461
tp6462
I0
s(S'106.63207769999997'
p6463
S'-6.2107244'
p6464
tp6465
I2
s(S'106.5201084'
p6466
S'-6.2347753'
p6467
tp6468
I0
s(S'106.79472422753906'
p6469
S'-6.336845677249076'
p6470
tp6471
I0
s(S'106.8075136'
p6472
S'-6.2088902'
p6473
tp6474
I2
s(S'106.84862479999993'
p6475
S'-6.2587277'
p6476
tp6477
I0
s(S'106.77198567459106'
p6478
S'-6.380219923864266'
p6479
tp6480
I0
s(S'106.82695860000001'
p6481
S'-6.4755093'
p6482
tp6483
I0
s(S'110.3883549'
p6484
S'-7.7128278'
p6485
tp6486
I0
s(S'106.99046640000006'
p6487
S'-6.2284397'
p6488
tp6489
I2
s(S'106.93918310000004'
p6490
S'-6.298213199999999'
p6491
tp6492
I0
s(S'107.60500495106'
p6493
S'-6.8922373864722'
p6494
tp6495
I0
s(S'110.9866942'
p6496
S'-7.6070727'
p6497
tp6498
I2
s(S'106.9473506'
p6499
S'-6.2087382'
p6500
tp6501
I0
s(S'112.6569138'
p6502
S'-7.9266466'
p6503
tp6504
I2
s(S'107.68812720000005'
p6505
S'-6.885353899999999'
p6506
tp6507
I0
s(S'106.81619410000008'
p6508
S'-6.3852815711842394'
p6509
tp6510
I0
s(S'106.90366919999997'
p6511
S'-6.3762354'
p6512
tp6513
I0
s(S'106.772103'
p6514
S'-6.512621'
p6515
tp6516
I2
s(S'106.80285589999994'
p6517
S'-6.6256207'
p6518
tp6519
I0
s(S'107.0220553'
p6520
S'-6.3454232'
p6521
tp6522
I0
s(S'107.5786238'
p6523
S'-6.8766315'
p6524
tp6525
I0
s(S'110.81666700000005'
p6526
S'-7.566667'
p6527
tp6528
I2
s(S'110.3829306'
p6529
S'-7.7205575'
p6530
tp6531
I0
s(S'107.12908771965'
p6532
S'-6.3310829137097'
p6533
tp6534
I0
s(S'106.74659055778'
p6535
S'-6.3231441764012'
p6536
tp6537
I0
s(S'106.66948580000007'
p6538
S'-6.263249699999999'
p6539
tp6540
I0
s(S'106.78817927795421'
p6541
S'-6.393669370826812'
p6542
tp6543
I0
s(S'106.81653888092046'
p6544
S'-6.357288834072579'
p6545
tp6546
I0
s(S'106.7794935'
p6547
S'-6.2775326'
p6548
tp6549
I2
s(S'109.3009955'
p6550
S'1.3486888'
p6551
tp6552
I2
s(S'106.77702590000001'
p6553
S'-6.171465299999999'
p6554
tp6555
I0
s(S'107.14453800000001'
p6556
S'-6.254947'
p6557
tp6558
I2
s(S'109.3159551'
p6559
S'-0.037168'
p6560
tp6561
I0
s(S'106.79361255634467'
p6562
S'-6.397304756181262'
p6563
tp6564
I0
s(S'101.4477793'
p6565
S'0.5070677'
p6566
tp6567
I2
s(S'106.85263287305'
p6568
S'-6.2567855709831'
p6569
tp6570
I0
s(S'106.96081300000003'
p6571
S'-6.2601968'
p6572
tp6573
I2
s(S'107.02678309999999'
p6574
S'-6.2910041'
p6575
tp6576
I0
s(S'106.79071721719674'
p6577
S'-6.385975935632304'
p6578
tp6579
I0
s(S'106.7376117'
p6580
S'-6.1366932'
p6581
tp6582
I0
s(S'115.0781804'
p6583
S'-8.1213758'
p6584
tp6585
I2
s(S'107.10709999999995'
p6586
S'-6.2335134'
p6587
tp6588
I2
s(S'106.8139497'
p6589
S'-6.1833432'
p6590
tp6591
I0
s(S'106.8049659'
p6592
S'-6.341257'
p6593
tp6594
I0
s(S'106.8827427'
p6595
S'-6.1796396'
p6596
tp6597
I2
s(S'112.79915699999992'
p6598
S'-7.2624995'
p6599
tp6600
I0
s(S'119.43273139999997'
p6601
S'-5.147665099999999'
p6602
tp6603
I2
s(S'106.79744749206543'
p6604
S'-6.435508018044144'
p6605
tp6606
I0
s(S'112.8045928'
p6607
S'-7.3190191'
p6608
tp6609
I0
s(S'106.86889350000001'
p6610
S'-6.5047099'
p6611
tp6612
I0
s(S'110.41627749999998'
p6613
S'-7.800865599999999'
p6614
tp6615
I0
s(S'106.94517919999998'
p6616
S'-6.4038946'
p6617
tp6618
I0
s(S'106.9204029'
p6619
S'-6.166567'
p6620
tp6621
I0
s(S'112.5674819'
p6622
S'-7.9178507'
p6623
tp6624
I2
s(S'107.6376102'
p6625
S'-6.9569362'
p6626
tp6627
I0
s(S'117.14361540000004'
p6628
S'-0.4948232'
p6629
tp6630
I2
s(S'106.84022119999997'
p6631
S'-6.224885200000001'
p6632
tp6633
I0
s(S'106.96042460000001'
p6634
S'-6.227952699999999'
p6635
tp6636
I0
s(S'106.819262'
p6637
S'-6.7046124'
p6638
tp6639
I0
s(S'107.6589922'
p6640
S'-6.8739583'
p6641
tp6642
I2
s(S'106.7043452'
p6643
S'-6.1540291'
p6644
tp6645
I0
s(S'106.68811470000003'
p6646
S'-6.178199299999999'
p6647
tp6648
I0
s(S'102.080101'
p6649
S'1.489214'
p6650
tp6651
I2
s(S'106.90364899999997'
p6652
S'-6.376174199999999'
p6653
tp6654
I0
s(S'106.8119768'
p6655
S'-6.188982'
p6656
tp6657
I2
s(S'107.03544290000002'
p6658
S'-6.1754151'
p6659
tp6660
I0
s(S'106.88103360000002'
p6661
S'-6.2262477'
p6662
tp6663
I0
s(S'107.667259'
p6664
S'-6.9018739'
p6665
tp6666
I0
s(S'107.64664300000004'
p6667
S'-6.971519000000001'
p6668
tp6669
I2
s(S'106.80903060000003'
p6670
S'-6.5256851'
p6671
tp6672
I0
s(S'106.665514'
p6673
S'-6.2922121'
p6674
tp6675
I0
s(S'106.8075756'
p6676
S'-6.6384138'
p6677
tp6678
I0
s(S'106.817192'
p6679
S'-6.404192'
p6680
tp6681
I2
s(S'106.84733770000003'
p6682
S'-6.3853366'
p6683
tp6684
I2
s(S'112.02403419999996'
p6685
S'-7.7893934'
p6686
tp6687
I0
s(S'106.96242389999998'
p6688
S'-6.3533218'
p6689
tp6690
I0
s(S'106.79145689999996'
p6691
S'-6.3370444'
p6692
tp6693
I0
s(S'112.60886089999997'
p6694
S'-8.0023108'
p6695
tp6696
I2
s(S'107.61275899999998'
p6697
S'-6.937720700000001'
p6698
tp6699
I0
s(S'106.718056'
p6700
S'-6.288888999999999'
p6701
tp6702
I2
s(S'106.85677320000002'
p6703
S'-6.574910399999999'
p6704
tp6705
I0
s(S'106.948705'
p6706
S'-6.212421'
p6707
tp6708
I0
s(S'106.872733'
p6709
S'-6.188169'
p6710
tp6711
I2
ssb.